(dp0
VAGL
p1
(isrc.baseline_system.data.Page
Page
p2
(dp3
S'is_redirect'
p4
I00
sS'aliases'
p5
(lp6
VAGL (disambiguation)
p7
asS'redirect_page'
p8
NsS'pageid'
p9
I1917648
sS'title'
p10
g1
sbsVAGI
p11
(isrc.baseline_system.data.Page
Page
p12
(dp13
g4
I00
sg5
(lp14
VAGI (disambiguation)
p15
asg8
Nsg9
I1156866
sg10
g11
sbsVachieving machine intelligence
p16
(isrc.baseline_system.data.Page
Page
p17
(dp18
g4
I00
sg5
Nsg8
Nsg9
I0
sg10
g16
sbsVChief information officers
p19
(isrc.baseline_system.data.Page
Page
p20
(dp21
g4
I00
sg5
Nsg8
Nsg9
I0
sg10
g19
sbsVchief information officer
p22
(isrc.baseline_system.data.Page
Page
p23
(dp24
g4
I00
sg5
(lp25
VCIO
p26
asg8
Nsg9
I153852
sg10
g22
sbsVIndustrial Control Systems
p27
(isrc.baseline_system.data.Page
Page
p28
(dp29
g4
I01
sg5
Nsg8
(isrc.baseline_system.data.Page
Page
p30
(dp31
g4
I00
sg5
(lp32
VICS
p33
asg8
Nsg9
I7333367
sg10
VIndustrial control system
p34
sbsg9
I19173553
sg10
g27
sbsVKYC
p35
(isrc.baseline_system.data.Page
Page
p36
(dp37
g4
I00
sg5
Nsg8
Nsg9
I2263662
sg10
g35
sbsVSPU
p38
(isrc.baseline_system.data.Page
Page
p39
(dp40
g4
I00
sg5
Nsg8
Nsg9
I1324788
sg10
g38
sbsVGeneric Routing Encapsulation
p41
(isrc.baseline_system.data.Page
Page
p42
(dp43
g4
I00
sg5
Nsg8
Nsg9
I616939
sg10
g41
sbsVSPA
p44
(isrc.baseline_system.data.Page
Page
p45
(dp46
g4
I00
sg5
Nsg8
Nsg9
I148245
sg10
g44
sbsVFacebooks AIresearch team
p47
(isrc.baseline_system.data.Page
Page
p48
(dp49
g4
I00
sg5
Nsg8
Nsg9
I0
sg10
g47
sbsVChief Marketing Officer
p50
(isrc.baseline_system.data.Page
Page
p51
(dp52
g4
I01
sg5
Nsg8
(isrc.baseline_system.data.Page
Page
p53
(dp54
g4
I00
sg5
(lp55
VCMO
p56
asg8
Nsg9
I1046550
sg10
VChief marketing officer
p57
sbsg9
I5882489
sg10
g50
sbsVAdvance Ai Artificial Intelligence
p58
(isrc.baseline_system.data.Page
Page
p59
(dp60
g4
I00
sg5
Nsg8
Nsg9
I0
sg10
g58
sbsVNatural-language processing
p61
(isrc.baseline_system.data.Page
Page
p62
(dp63
g4
I00
sg5
(lp64
VNLP
p65
asg8
Nsg9
I21652
sg10
g61
sbsVlargest annual gathering
p66
(isrc.baseline_system.data.Page
Page
p67
(dp68
g4
I00
sg5
Nsg8
Nsg9
I0
sg10
g66
sbsVMAS
p69
(isrc.baseline_system.data.Page
Page
p70
(dp71
g4
I01
sg5
Nsg8
(isrc.baseline_system.data.Page
Page
p72
(dp73
g4
I00
sg5
Nsg8
Nsg9
I923717
sg10
VMas
p74
sbsg9
I1971964
sg10
g69
sbsVTrans Australia Airlines
p75
(isrc.baseline_system.data.Page
Page
p76
(dp77
g4
I00
sg5
Nsg8
Nsg9
I187203
sg10
g75
sbsVUC Santa Cruz
p78
(isrc.baseline_system.data.Page
Page
p79
(dp80
g4
I01
sg5
Nsg8
(isrc.baseline_system.data.Page
Page
p81
(dp82
g4
I00
sg5
(lp83
VUC Santa Cruz
p84
aVUCSC
p85
asg8
Nsg9
I31923
sg10
VUniversity of California, Santa Cruz
p86
sbsg9
I787710
sg10
g78
sbsVProminent Industry Participants
p87
(isrc.baseline_system.data.Page
Page
p88
(dp89
g4
I00
sg5
Nsg8
Nsg9
I0
sg10
g87
sbsVIndividual Solution Providers
p90
(isrc.baseline_system.data.Page
Page
p91
(dp92
g4
I00
sg5
Nsg8
Nsg9
I0
sg10
g90
sbsVWorld Semiconductor Trade Statistics
p93
(isrc.baseline_system.data.Page
Page
p94
(dp95
g4
I00
sg5
Nsg8
Nsg9
I0
sg10
g93
sbsVSoftware-Defined Storage
p96
(isrc.baseline_system.data.Page
Page
p97
(dp98
g4
I00
sg5
Nsg8
Nsg9
I0
sg10
g96
sbsVsenior vice president
p99
(isrc.baseline_system.data.Page
Page
p100
(dp101
g4
I01
sg5
Nsg8
(isrc.baseline_system.data.Page
Page
p102
(dp103
g4
I00
sg5
(lp104
Vvice-president
p105
aVdirector
p106
asg8
Nsg9
I52113
sg10
VVice president
p107
sbsg9
I15860281
sg10
g99
sbsVEVP
p108
(isrc.baseline_system.data.Page
Page
p109
(dp110
g4
I00
sg5
Nsg8
Nsg9
I370417
sg10
g108
sbsVLSE
p111
(isrc.baseline_system.data.Page
Page
p112
(dp113
g4
I00
sg5
Nsg8
Nsg9
I332419
sg10
g111
sbsVPersonalized User Experience
p114
(isrc.baseline_system.data.Page
Page
p115
(dp116
g4
I00
sg5
Nsg8
Nsg9
I0
sg10
g114
sbsVNervana  a set
p117
(isrc.baseline_system.data.Page
Page
p118
(dp119
g4
I00
sg5
Nsg8
Nsg9
I0
sg10
g117
sbsVTTS
p120
(isrc.baseline_system.data.Page
Page
p121
(dp122
g4
I00
sg5
Nsg8
Nsg9
I191951
sg10
g120
sbsVCSE
p123
(isrc.baseline_system.data.Page
Page
p124
(dp125
g4
I00
sg5
Nsg8
Nsg9
I15204599
sg10
g123
sbsVTTH
p126
(isrc.baseline_system.data.Page
Page
p127
(dp128
g4
I00
sg5
Nsg8
Nsg9
I1402787
sg10
g126
sbsVPublic-Cloud Infrastructure
p129
(isrc.baseline_system.data.Page
Page
p130
(dp131
g4
I00
sg5
Nsg8
Nsg9
I0
sg10
g129
sbsVcloud content security gateway
p132
(isrc.baseline_system.data.Page
Page
p133
(dp134
g4
I00
sg5
Nsg8
Nsg9
I0
sg10
g132
sbsVmarket development funds
p135
(isrc.baseline_system.data.Page
Page
p136
(dp137
g4
I00
sg5
Nsg8
Nsg9
I9070585
sg10
g135
sbsVintensive virtualization applications
p138
(isrc.baseline_system.data.Page
Page
p139
(dp140
g4
I00
sg5
Nsg8
Nsg9
I0
sg10
g138
sbsVGRE
p141
(isrc.baseline_system.data.Page
Page
p142
(dp143
g4
I01
sg5
Nsg8
(isrc.baseline_system.data.Page
Page
p144
(dp145
g4
I00
sg5
(lp146
VGRE
p147
asg8
Nsg9
I346643
sg10
VGraduate Record Examinations
p148
sbsg9
I29523273
sg10
g141
sbsVnormal or abnormal
p149
(isrc.baseline_system.data.Page
Page
p150
(dp151
g4
I00
sg5
Nsg8
Nsg9
I0
sg10
g149
sbsVArtificial Narrow Intelligence
p152
(isrc.baseline_system.data.Page
Page
p153
(dp154
g4
I00
sg5
Nsg8
Nsg9
I0
sg10
g152
sbsVDepartment of Statistics
p155
(isrc.baseline_system.data.Page
Page
p156
(dp157
g4
I00
sg5
Nsg8
Nsg9
I35328230
sg10
g155
sbsVchief operating officer
p158
(isrc.baseline_system.data.Page
Page
p159
(dp160
g4
I00
sg5
(lp161
VCOO
p162
asg8
Nsg9
I343044
sg10
g158
sbsVconnected devices space
p163
(isrc.baseline_system.data.Page
Page
p164
(dp165
g4
I00
sg5
Nsg8
Nsg9
I0
sg10
g163
sbsVGlobal Climate Change
p166
(isrc.baseline_system.data.Page
Page
p167
(dp168
g4
I01
sg5
Nsg8
(isrc.baseline_system.data.Page
Page
p169
(dp170
g4
I00
sg5
(lp171
Vclimatic variation
p172
asg8
Nsg9
I47512
sg10
VClimate change
p173
sbsg9
I634047
sg10
g166
sbsVCustomer Relationship Management
p174
(isrc.baseline_system.data.Page
Page
p175
(dp176
g4
I01
sg5
Nsg8
(isrc.baseline_system.data.Page
Page
p177
(dp178
g4
I00
sg5
(lp179
VCRM
p180
aVCustomer Relationship Management System
p181
aVCRM system
p182
asg8
Nsg9
I6968
sg10
VCustomer relationship management
p183
sbsg9
I599901
sg10
g174
sbsVBrowse All Reports
p184
(isrc.baseline_system.data.Page
Page
p185
(dp186
g4
I00
sg5
Nsg8
Nsg9
I0
sg10
g184
sbsVNOA
p187
(isrc.baseline_system.data.Page
Page
p188
(dp189
g4
I01
sg5
Nsg8
(isrc.baseline_system.data.Page
Page
p190
(dp191
g4
I00
sg5
Nsg8
Nsg9
I749104
sg10
VNoa
p192
sbsg9
I1867232
sg10
g187
sbsVChief analytics officer
p193
(isrc.baseline_system.data.Page
Page
p194
(dp195
g4
I00
sg5
(lp196
VCAO
p197
asg8
Nsg9
I2920684
sg10
g193
sbsVenterprise content management
p198
(isrc.baseline_system.data.Page
Page
p199
(dp200
g4
I00
sg5
Nsg8
Nsg9
I1644982
sg10
g198
sbsVIsraeli Defense Forces
p201
(isrc.baseline_system.data.Page
Page
p202
(dp203
g4
I01
sg5
Nsg8
(isrc.baseline_system.data.Page
Page
p204
(dp205
g4
I00
sg5
(lp206
VIDF
p207
aVTzva Hahagana Le Yisra'el
p208
aVTzahel
p209
aVTzahal
p210
asg8
Nsg9
I39237
sg10
VIsrael Defense Forces
p211
sbsg9
I372644
sg10
g201
sbsVglobal positioning systems
p212
(isrc.baseline_system.data.Page
Page
p213
(dp214
g4
I01
sg5
Nsg8
(isrc.baseline_system.data.Page
Page
p215
(dp216
g4
I00
sg5
(lp217
VGPS
p218
aVGlobal Positioning System, GPS
p219
asg8
Nsg9
I11866
sg10
VGlobal Positioning System
p220
sbsg9
I1791126
sg10
g212
sbsVFinancial Industry Business Ontology
p221
(isrc.baseline_system.data.Page
Page
p222
(dp223
g4
I00
sg5
Nsg8
Nsg9
I55693968
sg10
g221
sbsVCTS
p224
(isrc.baseline_system.data.Page
Page
p225
(dp226
g4
I00
sg5
Nsg8
Nsg9
I268347
sg10
g224
sbsVEIS
p227
(isrc.baseline_system.data.Page
Page
p228
(dp229
g4
I00
sg5
Nsg8
Nsg9
I235529
sg10
g227
sbsVCTE
p230
(isrc.baseline_system.data.Page
Page
p231
(dp232
g4
I00
sg5
Nsg8
Nsg9
I1542780
sg10
g230
sbsVCTA
p233
(isrc.baseline_system.data.Page
Page
p234
(dp235
g4
I00
sg5
Nsg8
Nsg9
I416986
sg10
g233
sbsVText To Speech
p236
(isrc.baseline_system.data.Page
Page
p237
(dp238
g4
I01
sg5
Nsg8
(isrc.baseline_system.data.Page
Page
p239
(dp240
g4
I00
sg5
(lp241
VText-to-speech
p242
asg8
Nsg9
I42799
sg10
VSpeech synthesis
p243
sbsg9
I3688849
sg10
g236
sbsVCTO
p244
(isrc.baseline_system.data.Page
Page
p245
(dp246
g4
I00
sg5
Nsg8
Nsg9
I337348
sg10
g244
sbsVdistributed and non-distributed attention
p247
(isrc.baseline_system.data.Page
Page
p248
(dp249
g4
I00
sg5
Nsg8
Nsg9
I0
sg10
g247
sbsVApplication Program Interfaces
p250
(isrc.baseline_system.data.Page
Page
p251
(dp252
g4
I00
sg5
Nsg8
Nsg9
I0
sg10
g250
sbsVCSR
p253
(isrc.baseline_system.data.Page
Page
p254
(dp255
g4
I00
sg5
Nsg8
Nsg9
I597572
sg10
g253
sbsVScalable Vector Graphics
p256
(isrc.baseline_system.data.Page
Page
p257
(dp258
g4
I00
sg5
(lp259
VSVG
p260
aV.svg
p261
asg8
Nsg9
I27751
sg10
g256
sbsVRobotic Process Automation
p262
(isrc.baseline_system.data.Page
Page
p263
(dp264
g4
I01
sg5
Nsg8
(isrc.baseline_system.data.Page
Page
p265
(dp266
g4
I00
sg5
Nsg8
Nsg9
I47642826
sg10
VRobotic process automation
p267
sbsg9
I51708031
sg10
g262
sbsVUplink Data Compression
p268
(isrc.baseline_system.data.Page
Page
p269
(dp270
g4
I00
sg5
Nsg8
Nsg9
I0
sg10
g268
sbsVPower Usage Efficiency
p271
(isrc.baseline_system.data.Page
Page
p272
(dp273
g4
I00
sg5
Nsg8
Nsg9
I0
sg10
g271
sbsVchief executive officer
p274
(isrc.baseline_system.data.Page
Page
p275
(dp276
g4
I00
sg5
(lp277
VCEO
p278
aVmanaging director
p279
aVexecutive director
p280
aVManaging Director
p281
aVChief executive officer
p282
asg8
Nsg9
I52234
sg10
g274
sbsVTAM
p283
(isrc.baseline_system.data.Page
Page
p284
(dp285
g4
I00
sg5
Nsg8
Nsg9
I882958
sg10
g283
sbsVComputational Fluid Dynamics
p286
(isrc.baseline_system.data.Page
Page
p287
(dp288
g4
I01
sg5
Nsg8
(isrc.baseline_system.data.Page
Page
p289
(dp290
g4
I00
sg5
(lp291
VCFD
p292
asg8
Nsg9
I305924
sg10
VComputational fluid dynamics
p293
sbsg9
I286090
sg10
g286
sbsVelaborate security protocols
p294
(isrc.baseline_system.data.Page
Page
p295
(dp296
g4
I00
sg5
Nsg8
Nsg9
I0
sg10
g294
sbsVSacha Inchi Protein
p297
(isrc.baseline_system.data.Page
Page
p298
(dp299
g4
I00
sg5
Nsg8
Nsg9
I0
sg10
g297
sbsVMuscle Tension Dysphonia
p300
(isrc.baseline_system.data.Page
Page
p301
(dp302
g4
I00
sg5
Nsg8
Nsg9
I0
sg10
g300
sbsVEDR
p303
(isrc.baseline_system.data.Page
Page
p304
(dp305
g4
I00
sg5
Nsg8
Nsg9
I5361150
sg10
g303
sbsVEDS
p306
(isrc.baseline_system.data.Page
Page
p307
(dp308
g4
I00
sg5
Nsg8
Nsg9
I56627
sg10
g306
sbsVnatural-language processing
p309
(isrc.baseline_system.data.Page
Page
p310
(dp311
g4
I00
sg5
(lp312
VNLP
p313
asg8
Nsg9
I21652
sg10
g309
sbsVDPS
p314
(isrc.baseline_system.data.Page
Page
p315
(dp316
g4
I00
sg5
Nsg8
Nsg9
I1086487
sg10
g314
sbsVDPR
p317
(isrc.baseline_system.data.Page
Page
p318
(dp319
g4
I00
sg5
Nsg8
Nsg9
I3148748
sg10
g317
sbsVChief Customer Officer
p320
(isrc.baseline_system.data.Page
Page
p321
(dp322
g4
I01
sg5
Nsg8
(isrc.baseline_system.data.Page
Page
p323
(dp324
g4
I00
sg5
(lp325
VCCO
p326
asg8
Nsg9
I17731273
sg10
VChief customer officer
p327
sbsg9
I26674275
sg10
g320
sbsVSprucegrove Investment Management
p328
(isrc.baseline_system.data.Page
Page
p329
(dp330
g4
I00
sg5
Nsg8
Nsg9
I6653996
sg10
g328
sbsVIrritating Conversation Starter
p331
(isrc.baseline_system.data.Page
Page
p332
(dp333
g4
I00
sg5
Nsg8
Nsg9
I0
sg10
g331
sbsVCVG
p334
(isrc.baseline_system.data.Page
Page
p335
(dp336
g4
I00
sg5
Nsg8
Nsg9
I875065
sg10
g334
sbsVPEEP
p337
(isrc.baseline_system.data.Page
Page
p338
(dp339
g4
I01
sg5
Nsg8
(isrc.baseline_system.data.Page
Page
p340
(dp341
g4
I00
sg5
Nsg8
Nsg9
I3586968
sg10
VPositive end-expiratory pressure
p342
sbsg9
I32152294
sg10
g337
sbsVCharlotte Motor Speedway
p343
(isrc.baseline_system.data.Page
Page
p344
(dp345
g4
I00
sg5
(lp346
VLowes Motor Speedway
p347
asg8
Nsg9
I674219
sg10
g343
sbsVIIS
p348
(isrc.baseline_system.data.Page
Page
p349
(dp350
g4
I00
sg5
Nsg8
Nsg9
I209037
sg10
g348
sbsVTV game shows
p351
(isrc.baseline_system.data.Page
Page
p352
(dp353
g4
I00
sg5
Nsg8
Nsg9
I0
sg10
g351
sbsVIIC
p354
(isrc.baseline_system.data.Page
Page
p355
(dp356
g4
I00
sg5
Nsg8
Nsg9
I1544364
sg10
g354
sbsVComprehensive Booking System
p357
(isrc.baseline_system.data.Page
Page
p358
(dp359
g4
I00
sg5
Nsg8
Nsg9
I0
sg10
g357
sbsVNasdaq Composite Index
p360
(isrc.baseline_system.data.Page
Page
p361
(dp362
g4
I01
sg5
Nsg8
(isrc.baseline_system.data.Page
Page
p363
(dp364
g4
I00
sg5
(lp365
VNASDAQ Composite Index
p366
asg8
Nsg9
I9339194
sg10
VNasdaq Composite
p367
sbsg9
I56181300
sg10
g360
sbsVFPGA
p368
(isrc.baseline_system.data.Page
Page
p369
(dp370
g4
I01
sg5
Nsg8
(isrc.baseline_system.data.Page
Page
p371
(dp372
g4
I00
sg5
(lp373
VFPGA
p374
aVField-Programmable Gate Array
p375
asg8
Nsg9
I10969
sg10
VField-programmable gate array
p376
sbsg9
I592814
sg10
g368
sbsVlag
p377
(isrc.baseline_system.data.Page
Page
p378
(dp379
g4
I00
sg5
Nsg8
Nsg9
I20646089
sg10
g377
sbsVLicensed ZapThink Architect
p380
(isrc.baseline_system.data.Page
Page
p381
(dp382
g4
I00
sg5
Nsg8
Nsg9
I0
sg10
g380
sbsVEntire It Stack
p383
(isrc.baseline_system.data.Page
Page
p384
(dp385
g4
I00
sg5
Nsg8
Nsg9
I0
sg10
g383
sbsVWindows It Pro
p386
(isrc.baseline_system.data.Page
Page
p387
(dp388
g4
I00
sg5
Nsg8
Nsg9
I0
sg10
g386
sbsVCirque Du Soleil
p389
(isrc.baseline_system.data.Page
Page
p390
(dp391
g4
I01
sg5
Nsg8
(isrc.baseline_system.data.Page
Page
p392
(dp393
g4
I00
sg5
Nsg8
Nsg9
I284379
sg10
VCirque du Soleil
p394
sbsg9
I1022484
sg10
g389
sbsVAuto Executive Talks
p395
(isrc.baseline_system.data.Page
Page
p396
(dp397
g4
I00
sg5
Nsg8
Nsg9
I0
sg10
g395
sbsVCFD
p398
(isrc.baseline_system.data.Page
Page
p399
(dp400
g4
I00
sg5
Nsg8
Nsg9
I479861
sg10
g398
sbsVimportant AI myths
p401
(isrc.baseline_system.data.Page
Page
p402
(dp403
g4
I00
sg5
Nsg8
Nsg9
I0
sg10
g401
sbsVsite reliability engineers
p404
(isrc.baseline_system.data.Page
Page
p405
(dp406
g4
I00
sg5
Nsg8
Nsg9
I0
sg10
g404
sbsVservice activation fees
p407
(isrc.baseline_system.data.Page
Page
p408
(dp409
g4
I00
sg5
Nsg8
Nsg9
I0
sg10
g407
sbsVAAAI
p410
(isrc.baseline_system.data.Page
Page
p411
(dp412
g4
I01
sg5
Nsg8
(isrc.baseline_system.data.Page
Page
p413
(dp414
g4
I00
sg5
(lp415
VAAAI
p416
aVAmerican Association for Artificial Intelligence
p417
asg8
Nsg9
I534794
sg10
VAssociation for the Advancement of Artificial Intelligence
p418
sbsg9
I534919
sg10
g410
sbsVSAO
p419
(isrc.baseline_system.data.Page
Page
p420
(dp421
g4
I00
sg5
Nsg8
Nsg9
I1497189
sg10
g419
sbsVHistorical And Real-Time Data
p422
(isrc.baseline_system.data.Page
Page
p423
(dp424
g4
I00
sg5
Nsg8
Nsg9
I0
sg10
g422
sbsVAir Force acquisitions
p425
(isrc.baseline_system.data.Page
Page
p426
(dp427
g4
I00
sg5
Nsg8
Nsg9
I0
sg10
g425
sbsVultra high definition
p428
(isrc.baseline_system.data.Page
Page
p429
(dp430
g4
I01
sg5
Nsg8
(isrc.baseline_system.data.Page
Page
p431
(dp432
g4
I00
sg5
(lp433
VUHDTV
p434
aVUltra HD television
p435
aVSuper Hi-Vision
p436
aVUHD
p437
aV8K Ultra HDTV
p438
aV8K UHDTV
p439
aV8K UHD
p440
asg8
Nsg9
I47262026
sg10
VUltra-high-definition television
p441
sbsg9
I45671742
sg10
g428
sbsVSAE
p442
(isrc.baseline_system.data.Page
Page
p443
(dp444
g4
I00
sg5
Nsg8
Nsg9
I341650
sg10
g442
sbsVHgst Active Archive System
p445
(isrc.baseline_system.data.Page
Page
p446
(dp447
g4
I00
sg5
Nsg8
Nsg9
I0
sg10
g445
sbsVAdvanced Persistent Threat
p448
(isrc.baseline_system.data.Page
Page
p449
(dp450
g4
I01
sg5
Nsg8
(isrc.baseline_system.data.Page
Page
p451
(dp452
g4
I00
sg5
(lp453
VAPT
p454
asg8
Nsg9
I25874360
sg10
VAdvanced persistent threat
p455
sbsg9
I32892023
sg10
g448
sbsVSouth Africa-born entrepreneur
p456
(isrc.baseline_system.data.Page
Page
p457
(dp458
g4
I00
sg5
Nsg8
Nsg9
I0
sg10
g456
sbsVApplication Programming Interface
p459
(isrc.baseline_system.data.Page
Page
p460
(dp461
g4
I01
sg5
Nsg8
(isrc.baseline_system.data.Page
Page
p462
(dp463
g4
I00
sg5
(lp464
VAPI
p465
aVApplication programming interface
p466
asg8
Nsg9
I27697009
sg10
VApplication programming interface
p467
sbsg9
I27697014
sg10
g459
sbsVAsia Pacific Economic Cooperation
p468
(isrc.baseline_system.data.Page
Page
p469
(dp470
g4
I01
sg5
Nsg8
(isrc.baseline_system.data.Page
Page
p471
(dp472
g4
I00
sg5
(lp473
VAPEC
p474
asg8
Nsg9
I135976
sg10
VAsia-Pacific Economic Cooperation
p475
sbsg9
I242514
sg10
g468
sbsVQuantitative computed tomography
p476
(isrc.baseline_system.data.Page
Page
p477
(dp478
g4
I00
sg5
Nsg8
Nsg9
I6712032
sg10
g476
sbsVTuring Robotics Industries
p479
(isrc.baseline_system.data.Page
Page
p480
(dp481
g4
I00
sg5
Nsg8
Nsg9
I0
sg10
g479
sbsVHybrid Cloud Market
p482
(isrc.baseline_system.data.Page
Page
p483
(dp484
g4
I00
sg5
Nsg8
Nsg9
I0
sg10
g482
sbsVElectronic Medical Record
p485
(isrc.baseline_system.data.Page
Page
p486
(dp487
g4
I01
sg5
Nsg8
(isrc.baseline_system.data.Page
Page
p488
(dp489
g4
I00
sg5
(lp490
VEHR
p491
aVelectronic medical record
p492
aVEMR
p493
asg8
Nsg9
I1129641
sg10
VElectronic health record
p494
sbsg9
I850288
sg10
g485
sbsVMRI
p495
(isrc.baseline_system.data.Page
Page
p496
(dp497
g4
I01
sg5
Nsg8
(isrc.baseline_system.data.Page
Page
p498
(dp499
g4
I00
sg5
(lp500
VNMRI
p501
aVMRI
p502
asg8
Nsg9
I19446
sg10
VMagnetic resonance imaging
p503
sbsg9
I19450
sg10
g495
sbsVMRF
p504
(isrc.baseline_system.data.Page
Page
p505
(dp506
g4
I00
sg5
Nsg8
Nsg9
I615619
sg10
g504
sbsVBusiness process reengineering
p507
(isrc.baseline_system.data.Page
Page
p508
(dp509
g4
I00
sg5
Nsg8
Nsg9
I1638840
sg10
g507
sbsVMRC
p510
(isrc.baseline_system.data.Page
Page
p511
(dp512
g4
I00
sg5
Nsg8
Nsg9
I3353775
sg10
g510
sbsVInternational Cleaning Equipment
p513
(isrc.baseline_system.data.Page
Page
p514
(dp515
g4
I00
sg5
Nsg8
Nsg9
I0
sg10
g513
sbsVDBE
p516
(isrc.baseline_system.data.Page
Page
p517
(dp518
g4
I01
sg5
Nsg8
(isrc.baseline_system.data.Page
Page
p519
(dp520
g4
I00
sg5
(lp521
VMost Excellent Order of the British Empire
p522
asg8
Nsg9
I212182
sg10
VOrder of the British Empire
p523
sbsg9
I9422575
sg10
g516
sbsVAPT
p524
(isrc.baseline_system.data.Page
Page
p525
(dp526
g4
I00
sg5
Nsg8
Nsg9
I31589215
sg10
g524
sbsVAPU
p527
(isrc.baseline_system.data.Page
Page
p528
(dp529
g4
I00
sg5
Nsg8
Nsg9
I162130
sg10
g527
sbsVRobert Half International
p530
(isrc.baseline_system.data.Page
Page
p531
(dp532
g4
I00
sg5
Nsg8
Nsg9
I47159354
sg10
g530
sbsVTechnology Type  Simo
p533
(isrc.baseline_system.data.Page
Page
p534
(dp535
g4
I00
sg5
Nsg8
Nsg9
I0
sg10
g533
sbsVIntegrated Developer Experience
p536
(isrc.baseline_system.data.Page
Page
p537
(dp538
g4
I00
sg5
Nsg8
Nsg9
I0
sg10
g536
sbsVInternational Business Machines
p539
(isrc.baseline_system.data.Page
Page
p540
(dp541
g4
I01
sg5
Nsg8
(isrc.baseline_system.data.Page
Page
p542
(dp543
g4
I00
sg5
(lp544
VInternational Business Machines Corporation
p545
aVBig Blue
p546
aVI.B.M.
p547
aVInternational Business Machines
p548
aVIBM Corporation
p549
aVIBM Corp.
p550
asg8
Nsg9
I40379651
sg10
VIBM
p551
sbsg9
I40379739
sg10
g539
sbsVIBM Cognitive Solutions
p552
(isrc.baseline_system.data.Page
Page
p553
(dp554
g4
I00
sg5
Nsg8
Nsg9
I0
sg10
g552
sbsVchief analytics officer
p555
(isrc.baseline_system.data.Page
Page
p556
(dp557
g4
I00
sg5
(lp558
VCAO
p559
asg8
Nsg9
I2920684
sg10
g555
sbsVprominent industry participants
p560
(isrc.baseline_system.data.Page
Page
p561
(dp562
g4
I00
sg5
Nsg8
Nsg9
I0
sg10
g560
sbsVcontinuous glucose monitors
p563
(isrc.baseline_system.data.Page
Page
p564
(dp565
g4
I00
sg5
Nsg8
Nsg9
I0
sg10
g563
sbsVNLP
p566
(isrc.baseline_system.data.Page
Page
p567
(dp568
g4
I00
sg5
Nsg8
Nsg9
I40573
sg10
g566
sbsVLargest Individual Employer
p569
(isrc.baseline_system.data.Page
Page
p570
(dp571
g4
I00
sg5
Nsg8
Nsg9
I0
sg10
g569
sbsVNLG
p572
(isrc.baseline_system.data.Page
Page
p573
(dp574
g4
I00
sg5
Nsg8
Nsg9
I1229365
sg10
g572
sbsVChina Technology Ecosystem
p575
(isrc.baseline_system.data.Page
Page
p576
(dp577
g4
I00
sg5
Nsg8
Nsg9
I0
sg10
g575
sbsVsenior vice-president
p578
(isrc.baseline_system.data.Page
Page
p579
(dp580
g4
I01
sg5
Nsg8
(isrc.baseline_system.data.Page
Page
p581
(dp582
g4
I00
sg5
(lp583
Vvice-president
p584
aVdirector
p585
asg8
Nsg9
I52113
sg10
VVice president
p586
sbsg9
I35695106
sg10
g578
sbsVContainers Simplified Shipping
p587
(isrc.baseline_system.data.Page
Page
p588
(dp589
g4
I00
sg5
Nsg8
Nsg9
I0
sg10
g587
sbsVChief Technology Officer
p590
(isrc.baseline_system.data.Page
Page
p591
(dp592
g4
I01
sg5
Nsg8
(isrc.baseline_system.data.Page
Page
p593
(dp594
g4
I00
sg5
(lp595
VCTO
p596
aVchief technical officer
p597
asg8
Nsg9
I579193
sg10
VChief technology officer
p598
sbsg9
I581364
sg10
g590
sbsVGCC
p599
(isrc.baseline_system.data.Page
Page
p600
(dp601
g4
I00
sg5
Nsg8
Nsg9
I6548020
sg10
g599
sbsVcustom granola mix
p602
(isrc.baseline_system.data.Page
Page
p603
(dp604
g4
I00
sg5
Nsg8
Nsg9
I0
sg10
g602
sbsVAFA
p605
(isrc.baseline_system.data.Page
Page
p606
(dp607
g4
I00
sg5
Nsg8
Nsg9
I305707
sg10
g605
sbsVGCP
p608
(isrc.baseline_system.data.Page
Page
p609
(dp610
g4
I00
sg5
Nsg8
Nsg9
I1957823
sg10
g608
sbsVICS
p611
(isrc.baseline_system.data.Page
Page
p612
(dp613
g4
I00
sg5
Nsg8
Nsg9
I244450
sg10
g611
sbsVNas (disambiguation)
p614
(isrc.baseline_system.data.Page
Page
p615
(dp616
g4
I00
sg5
Nsg8
Nsg9
I1171480
sg10
g614
sbsVAFP
p617
(isrc.baseline_system.data.Page
Page
p618
(dp619
g4
I00
sg5
Nsg8
Nsg9
I6690851
sg10
g617
sbsVIBM Enterprise analytics
p620
(isrc.baseline_system.data.Page
Page
p621
(dp622
g4
I00
sg5
Nsg8
Nsg9
I0
sg10
g620
sbsVSSL
p623
(isrc.baseline_system.data.Page
Page
p624
(dp625
g4
I00
sg5
Nsg8
Nsg9
I29121
sg10
g623
sbsVLocation-Based Engagement Software
p626
(isrc.baseline_system.data.Page
Page
p627
(dp628
g4
I00
sg5
Nsg8
Nsg9
I0
sg10
g626
sbsVNormal Or Abnormal
p629
(isrc.baseline_system.data.Page
Page
p630
(dp631
g4
I00
sg5
Nsg8
Nsg9
I0
sg10
g629
sbsVSSD
p632
(isrc.baseline_system.data.Page
Page
p633
(dp634
g4
I01
sg5
Nsg8
(isrc.baseline_system.data.Page
Page
p635
(dp636
g4
I00
sg5
(lp637
Vsolid-state disk
p638
aVSSD
p639
aVelectronic disk
p640
aVSolid State Disk
p641
aVSolid state drive, SSD
p642
asg8
Nsg9
I7366298
sg10
VSolid-state drive
p643
sbsg9
I29885675
sg10
g632
sbsVsolid-state drives
p644
(isrc.baseline_system.data.Page
Page
p645
(dp646
g4
I01
sg5
Nsg8
(isrc.baseline_system.data.Page
Page
p647
(dp648
g4
I00
sg5
(lp649
Vsolid-state disk
p650
aVSSD
p651
aVelectronic disk
p652
aVSolid State Disk
p653
aVSolid state drive, SSD
p654
asg8
Nsg9
I7366298
sg10
VSolid-state drive
p655
sbsg9
I18829666
sg10
g644
sbsVBTI
p656
(isrc.baseline_system.data.Page
Page
p657
(dp658
g4
I00
sg5
Nsg8
Nsg9
I1258541
sg10
g656
sbsVSilicon Valley-inspired pod
p659
(isrc.baseline_system.data.Page
Page
p660
(dp661
g4
I00
sg5
Nsg8
Nsg9
I0
sg10
g659
sbsVGoogle Compute Cloud
p662
(isrc.baseline_system.data.Page
Page
p663
(dp664
g4
I00
sg5
Nsg8
Nsg9
I0
sg10
g662
sbsVService-Level Agreements
p665
(isrc.baseline_system.data.Page
Page
p666
(dp667
g4
I00
sg5
Nsg8
Nsg9
I0
sg10
g665
sbsVchief technology officer
p668
(isrc.baseline_system.data.Page
Page
p669
(dp670
g4
I00
sg5
(lp671
VCTO
p672
aVchief technical officer
p673
asg8
Nsg9
I579193
sg10
g668
sbsVECA
p674
(isrc.baseline_system.data.Page
Page
p675
(dp676
g4
I00
sg5
Nsg8
Nsg9
I59934
sg10
g674
sbsVAPIs
p677
(isrc.baseline_system.data.Page
Page
p678
(dp679
g4
I01
sg5
Nsg8
(isrc.baseline_system.data.Page
Page
p680
(dp681
g4
I00
sg5
Nsg8
Nsg9
I664763
sg10
VAPI (disambiguation)
p682
sbsg9
I25900642
sg10
g677
sbsVECM
p683
(isrc.baseline_system.data.Page
Page
p684
(dp685
g4
I00
sg5
Nsg8
Nsg9
I262739
sg10
g683
sbsVQualcomm CDMA Technologies
p686
(isrc.baseline_system.data.Page
Page
p687
(dp688
g4
I00
sg5
Nsg8
Nsg9
I0
sg10
g686
sbsVNational Hockey League
p689
(isrc.baseline_system.data.Page
Page
p690
(dp691
g4
I00
sg5
(lp692
VNHL
p693
asg8
Nsg9
I21809
sg10
g689
sbsVIdentity Theft Resource Center
p694
(isrc.baseline_system.data.Page
Page
p695
(dp696
g4
I00
sg5
Nsg8
Nsg9
I29007190
sg10
g694
sbsVContinuous Glucose Monitoring
p697
(isrc.baseline_system.data.Page
Page
p698
(dp699
g4
I00
sg5
Nsg8
Nsg9
I0
sg10
g697
sbsVHPE
p700
(isrc.baseline_system.data.Page
Page
p701
(dp702
g4
I00
sg5
Nsg8
Nsg9
I46418716
sg10
g700
sbsVSolid-State Drive
p703
(isrc.baseline_system.data.Page
Page
p704
(dp705
g4
I00
sg5
Nsg8
Nsg9
I0
sg10
g703
sbsVLNG
p706
(isrc.baseline_system.data.Page
Page
p707
(dp708
g4
I01
sg5
Nsg8
(isrc.baseline_system.data.Page
Page
p709
(dp710
g4
I00
sg5
(lp711
VLNG
p712
asg8
Nsg9
I832128
sg10
VLiquefied natural gas
p713
sbsg9
I1869273
sg10
g706
sbsVUc-San Diego
p714
(isrc.baseline_system.data.Page
Page
p715
(dp716
g4
I00
sg5
Nsg8
Nsg9
I0
sg10
g714
sbsVSecurities Exchange Act
p717
(isrc.baseline_system.data.Page
Page
p718
(dp719
g4
I01
sg5
Nsg8
(isrc.baseline_system.data.Page
Page
p720
(dp721
g4
I00
sg5
Nsg8
Nsg9
I663022
sg10
VSecurities Exchange Act of 1934
p722
sbsg9
I707472
sg10
g717
sbsVCashflow And Ability
p723
(isrc.baseline_system.data.Page
Page
p724
(dp725
g4
I00
sg5
Nsg8
Nsg9
I0
sg10
g723
sbsVcurrent market research
p726
(isrc.baseline_system.data.Page
Page
p727
(dp728
g4
I00
sg5
Nsg8
Nsg9
I0
sg10
g726
sbsVChief Accounting Officer
p729
(isrc.baseline_system.data.Page
Page
p730
(dp731
g4
I01
sg5
Nsg8
(isrc.baseline_system.data.Page
Page
p732
(dp733
g4
I00
sg5
(lp734
VCFO
p735
aVchief financial and operating officer
p736
aVCFOO
p737
aVfinance director
p738
asg8
Nsg9
I80007
sg10
VChief financial officer
p739
sbsg9
I4698820
sg10
g729
sbsVimpaired social processing
p740
(isrc.baseline_system.data.Page
Page
p741
(dp742
g4
I00
sg5
Nsg8
Nsg9
I0
sg10
g740
sbsVImportant Ai Myths
p743
(isrc.baseline_system.data.Page
Page
p744
(dp745
g4
I00
sg5
Nsg8
Nsg9
I0
sg10
g743
sbsVvCA
p746
(isrc.baseline_system.data.Page
Page
p747
(dp748
g4
I00
sg5
Nsg8
Nsg9
I8056280
sg10
g746
sbsVGlobal Business Services
p749
(isrc.baseline_system.data.Page
Page
p750
(dp751
g4
I01
sg5
Nsg8
(isrc.baseline_system.data.Page
Page
p752
(dp753
g4
I00
sg5
Nsg8
Nsg9
I1343794
sg10
VIBM Global Services
p754
sbsg9
I40506625
sg10
g749
sbsg598
g593
sVindustrial control systems
p755
(isrc.baseline_system.data.Page
Page
p756
(dp757
g4
I01
sg5
Nsg8
(isrc.baseline_system.data.Page
Page
p758
(dp759
g4
I00
sg5
(lp760
VICS
p761
asg8
Nsg9
I7333367
sg10
VIndustrial control system
p762
sbsg9
I30454280
sg10
g755
sbsVCloud System Infrastructure Services
p763
(isrc.baseline_system.data.Page
Page
p764
(dp765
g4
I00
sg5
Nsg8
Nsg9
I0
sg10
g763
sbsVrap
p766
(isrc.baseline_system.data.Page
Page
p767
(dp768
g4
I01
sg5
Nsg8
(isrc.baseline_system.data.Page
Page
p769
(dp770
g4
I00
sg5
(lp771
Vemceeing
p772
aVMCing
p773
aVrap
p774
aVrap music
p775
aVspitting bars
p776
asg8
Nsg9
I25421
sg10
VRapping
p777
sbsg9
I23712642
sg10
g766
sbsVBox content services
p778
(isrc.baseline_system.data.Page
Page
p779
(dp780
g4
I00
sg5
Nsg8
Nsg9
I0
sg10
g778
sbsVMissouri Cancer Associates
p781
(isrc.baseline_system.data.Page
Page
p782
(dp783
g4
I00
sg5
Nsg8
Nsg9
I0
sg10
g781
sbsVnatural language processing
p784
(isrc.baseline_system.data.Page
Page
p785
(dp786
g4
I01
sg5
Nsg8
g62
sg9
I56284938
sg10
g784
sbsVPOC
p787
(isrc.baseline_system.data.Page
Page
p788
(dp789
g4
I00
sg5
Nsg8
Nsg9
I1775353
sg10
g787
sbsVUC San DiegoX
p790
(isrc.baseline_system.data.Page
Page
p791
(dp792
g4
I00
sg5
Nsg8
Nsg9
I0
sg10
g790
sbsVCWE
p793
(isrc.baseline_system.data.Page
Page
p794
(dp795
g4
I00
sg5
Nsg8
Nsg9
I12915277
sg10
g793
sbsVSite Reliability Engineers
p796
(isrc.baseline_system.data.Page
Page
p797
(dp798
g4
I00
sg5
Nsg8
Nsg9
I0
sg10
g796
sbsg148
g144
sVUniversiti Teknologi Petronas
p799
(isrc.baseline_system.data.Page
Page
p800
(dp801
g4
I00
sg5
Nsg8
Nsg9
I1258552
sg10
g799
sbsVGlobal Positioning System
p802
(isrc.baseline_system.data.Page
Page
p803
(dp804
g4
I00
sg5
(lp805
VGPS
p806
aVGlobal Positioning System, GPS
p807
asg8
Nsg9
I11866
sg10
g802
sbsVauto executive talks
p808
(isrc.baseline_system.data.Page
Page
p809
(dp810
g4
I00
sg5
Nsg8
Nsg9
I0
sg10
g808
sbsVPAC
p811
(isrc.baseline_system.data.Page
Page
p812
(dp813
g4
I00
sg5
Nsg8
Nsg9
I272197
sg10
g811
sbsVNatural language processing
p814
(isrc.baseline_system.data.Page
Page
p815
(dp816
g4
I01
sg5
Nsg8
(isrc.baseline_system.data.Page
Page
p817
(dp818
g4
I00
sg5
(lp819
VNLP
p820
asg8
Nsg9
I21652
sg10
VNatural-language processing
p821
sbsg9
I56284938
sg10
g814
sbsVPAI
p822
(isrc.baseline_system.data.Page
Page
p823
(dp824
g4
I01
sg5
Nsg8
(isrc.baseline_system.data.Page
Page
p825
(dp826
g4
I00
sg5
Nsg8
Nsg9
I1242879
sg10
VPai
p827
sbsg9
I1484449
sg10
g822
sbsVEnterprise It Shops
p828
(isrc.baseline_system.data.Page
Page
p829
(dp830
g4
I00
sg5
Nsg8
Nsg9
I0
sg10
g828
sbsVPAN
p831
(isrc.baseline_system.data.Page
Page
p832
(dp833
g4
I01
sg5
Nsg8
(isrc.baseline_system.data.Page
Page
p834
(dp835
g4
I00
sg5
Nsg8
Nsg9
I310551
sg10
VPan
p836
sbsg9
I23644
sg10
g831
sbsVDCM
p837
(isrc.baseline_system.data.Page
Page
p838
(dp839
g4
I00
sg5
Nsg8
Nsg9
I8706
sg10
g837
sbsVDCG
p840
(isrc.baseline_system.data.Page
Page
p841
(dp842
g4
I00
sg5
Nsg8
Nsg9
I13823806
sg10
g840
sbsVScale Venture Partners
p843
(isrc.baseline_system.data.Page
Page
p844
(dp845
g4
I00
sg5
Nsg8
Nsg9
I41028794
sg10
g843
sbsVAutonomous Vehicle Technology
p846
(isrc.baseline_system.data.Page
Page
p847
(dp848
g4
I00
sg5
Nsg8
Nsg9
I0
sg10
g846
sbsVAWS
p849
(isrc.baseline_system.data.Page
Page
p850
(dp851
g4
I01
sg5
Nsg8
(isrc.baseline_system.data.Page
Page
p852
(dp853
g4
I00
sg5
(lp854
VAWS
p855
aVAmazon Web Services, Inc.
p856
asg8
Nsg9
I1691376
sg10
VAmazon Web Services
p857
sbsg9
I53432044
sg10
g849
sbsVGenetically modified organism
p858
(isrc.baseline_system.data.Page
Page
p859
(dp860
g4
I00
sg5
(lp861
VGMO
p862
aVGenetically Modified Organism, GMO
p863
asg8
Nsg9
I12339
sg10
g858
sbsVDCU
p864
(isrc.baseline_system.data.Page
Page
p865
(dp866
g4
I00
sg5
Nsg8
Nsg9
I544838
sg10
g864
sbsVContract for Difference
p867
(isrc.baseline_system.data.Page
Page
p868
(dp869
g4
I01
sg5
Nsg8
(isrc.baseline_system.data.Page
Page
p870
(dp871
g4
I00
sg5
(lp872
VCFD
p873
asg8
Nsg9
I1317334
sg10
VContract for difference
p874
sbsg9
I54308372
sg10
g867
sbsVSupport vector machine
p875
(isrc.baseline_system.data.Page
Page
p876
(dp877
g4
I00
sg5
(lp878
Vsupport vector machine
p879
aVSVM
p880
asg8
Nsg9
I65309
sg10
g875
sbsVChief Data Scientist
p881
(isrc.baseline_system.data.Page
Page
p882
(dp883
g4
I00
sg5
Nsg8
Nsg9
I0
sg10
g881
sbsVdetailed product roadmaps
p884
(isrc.baseline_system.data.Page
Page
p885
(dp886
g4
I00
sg5
Nsg8
Nsg9
I0
sg10
g884
sbsVmulti-turn dialogue manager
p887
(isrc.baseline_system.data.Page
Page
p888
(dp889
g4
I00
sg5
Nsg8
Nsg9
I0
sg10
g887
sbsVbar
p890
(isrc.baseline_system.data.Page
Page
p891
(dp892
g4
I00
sg5
Nsg8
Nsg9
I272207
sg10
g890
sbsVPost migration remediation
p893
(isrc.baseline_system.data.Page
Page
p894
(dp895
g4
I00
sg5
Nsg8
Nsg9
I0
sg10
g893
sbsVtraditional phone sales
p896
(isrc.baseline_system.data.Page
Page
p897
(dp898
g4
I00
sg5
Nsg8
Nsg9
I0
sg10
g896
sbsVAET
p899
(isrc.baseline_system.data.Page
Page
p900
(dp901
g4
I00
sg5
Nsg8
Nsg9
I11556025
sg10
g899
sbsg267
g265
sVQualcomm Cdma Technologies
p902
(isrc.baseline_system.data.Page
Page
p903
(dp904
g4
I00
sg5
Nsg8
Nsg9
I0
sg10
g902
sbsVdisparate operational tools
p905
(isrc.baseline_system.data.Page
Page
p906
(dp907
g4
I00
sg5
Nsg8
Nsg9
I0
sg10
g905
sbsVDMP
p908
(isrc.baseline_system.data.Page
Page
p909
(dp910
g4
I00
sg5
Nsg8
Nsg9
I4619963
sg10
g908
sbsVGBS
p911
(isrc.baseline_system.data.Page
Page
p912
(dp913
g4
I00
sg5
Nsg8
Nsg9
I415312
sg10
g911
sbsVcustomer-relationship management
p914
(isrc.baseline_system.data.Page
Page
p915
(dp916
g4
I00
sg5
Nsg8
Nsg9
I0
sg10
g914
sbsVLawrence Livermore National Laboratory
p917
(isrc.baseline_system.data.Page
Page
p918
(dp919
g4
I00
sg5
(lp920
VLLNL
p921
asg8
Nsg9
I39039
sg10
g917
sbsVChief Cognitive Officer
p922
(isrc.baseline_system.data.Page
Page
p923
(dp924
g4
I00
sg5
Nsg8
Nsg9
I0
sg10
g922
sbsVcashflow and ability
p925
(isrc.baseline_system.data.Page
Page
p926
(dp927
g4
I00
sg5
Nsg8
Nsg9
I0
sg10
g925
sbsVAMAs
p928
(isrc.baseline_system.data.Page
Page
p929
(dp930
g4
I01
sg5
Nsg8
(isrc.baseline_system.data.Page
Page
p931
(dp932
g4
I00
sg5
(lp933
VAMAs
p934
aVAMA
p935
asg8
Nsg9
I408362
sg10
VAmerican Music Award
p936
sbsg9
I52079252
sg10
g928
sbsVSoftware Defined Storage
p937
(isrc.baseline_system.data.Page
Page
p938
(dp939
g4
I01
sg5
Nsg8
(isrc.baseline_system.data.Page
Page
p940
(dp941
g4
I00
sg5
Nsg8
Nsg9
I36776993
sg10
VSoftware-defined storage
p942
sbsg9
I37183801
sg10
g937
sbsVExecutive Vice-President
p943
(isrc.baseline_system.data.Page
Page
p944
(dp945
g4
I01
sg5
Nsg8
(isrc.baseline_system.data.Page
Page
p946
(dp947
g4
I00
sg5
(lp948
Vvice-president
p949
aVdirector
p950
asg8
Nsg9
I52113
sg10
VVice president
p951
sbsg9
I44820965
sg10
g943
sbsVGDPR
p952
(isrc.baseline_system.data.Page
Page
p953
(dp954
g4
I01
sg5
Nsg8
(isrc.baseline_system.data.Page
Page
p955
(dp956
g4
I00
sg5
(lp957
VGDPR
p958
asg8
Nsg9
I38104075
sg10
VGeneral Data Protection Regulation
p959
sbsg9
I15931601
sg10
g952
sbsVdigital signal processor
p960
(isrc.baseline_system.data.Page
Page
p961
(dp962
g4
I00
sg5
(lp963
VDSP
p964
aVDigital signal processor\uff0cDSP
p965
asg8
Nsg9
I154505
sg10
g960
sbsVLead Software Engineer
p966
(isrc.baseline_system.data.Page
Page
p967
(dp968
g4
I00
sg5
Nsg8
Nsg9
I0
sg10
g966
sbsVAzure cloud service
p969
(isrc.baseline_system.data.Page
Page
p970
(dp971
g4
I00
sg5
Nsg8
Nsg9
I0
sg10
g969
sbsVDigital Signal Processor
p972
(isrc.baseline_system.data.Page
Page
p973
(dp974
g4
I01
sg5
Nsg8
(isrc.baseline_system.data.Page
Page
p975
(dp976
g4
I00
sg5
(lp977
VDSP
p978
aVDigital signal processor\uff0cDSP
p979
asg8
Nsg9
I154505
sg10
VDigital signal processor
p980
sbsg9
I126721
sg10
g972
sbsVGlobal Positioning Systems
p981
(isrc.baseline_system.data.Page
Page
p982
(dp983
g4
I01
sg5
Nsg8
(isrc.baseline_system.data.Page
Page
p984
(dp985
g4
I00
sg5
(lp986
VGPS
p987
aVGlobal Positioning System, GPS
p988
asg8
Nsg9
I11866
sg10
VGlobal Positioning System
p989
sbsg9
I33409938
sg10
g981
sbsVCustom Granola Mix
p990
(isrc.baseline_system.data.Page
Page
p991
(dp992
g4
I00
sg5
Nsg8
Nsg9
I0
sg10
g990
sbsVPSU
p993
(isrc.baseline_system.data.Page
Page
p994
(dp995
g4
I00
sg5
Nsg8
Nsg9
I355903
sg10
g993
sbsVConsumer Technology Association
p996
(isrc.baseline_system.data.Page
Page
p997
(dp998
g4
I00
sg5
(lp999
VCEA
p1000
aVConsumer Electronics Association
p1001
aVCTA
p1002
asg8
Nsg9
I273543
sg10
g996
sbsVPoetics of Commemoration
p1003
(isrc.baseline_system.data.Page
Page
p1004
(dp1005
g4
I00
sg5
Nsg8
Nsg9
I0
sg10
g1003
sbsVIntel AI chips
p1006
(isrc.baseline_system.data.Page
Page
p1007
(dp1008
g4
I00
sg5
Nsg8
Nsg9
I0
sg10
g1006
sbsVAzure Machine Learning
p1009
(isrc.baseline_system.data.Page
Page
p1010
(dp1011
g4
I00
sg5
Nsg8
Nsg9
I0
sg10
g1009
sbsVadvanced persistent threat
p1012
(isrc.baseline_system.data.Page
Page
p1013
(dp1014
g4
I00
sg5
(lp1015
VAPT
p1016
asg8
Nsg9
I25874360
sg10
g1012
sbsVGlobal Market Outlook
p1017
(isrc.baseline_system.data.Page
Page
p1018
(dp1019
g4
I00
sg5
Nsg8
Nsg9
I0
sg10
g1017
sbsVCampaign Management Platform
p1020
(isrc.baseline_system.data.Page
Page
p1021
(dp1022
g4
I00
sg5
Nsg8
Nsg9
I0
sg10
g1020
sbsVBCS
p1023
(isrc.baseline_system.data.Page
Page
p1024
(dp1025
g4
I00
sg5
Nsg8
Nsg9
I419252
sg10
g1023
sbsVNervana  A Set
p1026
(isrc.baseline_system.data.Page
Page
p1027
(dp1028
g4
I00
sg5
Nsg8
Nsg9
I0
sg10
g1026
sbsVadvanced driver assistance systems
p1029
(isrc.baseline_system.data.Page
Page
p1030
(dp1031
g4
I01
sg5
Nsg8
(isrc.baseline_system.data.Page
Page
p1032
(dp1033
g4
I00
sg5
Nsg8
Nsg9
I984718
sg10
VAdvanced driver-assistance systems
p1034
sbsg9
I53858841
sg10
g1029
sbsVdigital stokvel solution
p1035
(isrc.baseline_system.data.Page
Page
p1036
(dp1037
g4
I00
sg5
Nsg8
Nsg9
I0
sg10
g1035
sbsVConvolutional Neural Networks
p1038
(isrc.baseline_system.data.Page
Page
p1039
(dp1040
g4
I00
sg5
Nsg8
Nsg9
I0
sg10
g1038
sbsVdots
p1041
(isrc.baseline_system.data.Page
Page
p1042
(dp1043
g4
I00
sg5
Nsg8
Nsg9
I1730788
sg10
g1041
sbsg936
g931
sVpersonalized user experience
p1044
(isrc.baseline_system.data.Page
Page
p1045
(dp1046
g4
I00
sg5
Nsg8
Nsg9
I0
sg10
g1044
sbsVSRE
p1047
(isrc.baseline_system.data.Page
Page
p1048
(dp1049
g4
I00
sg5
Nsg8
Nsg9
I4047335
sg10
g1047
sbsVComparison Shopping Sites
p1050
(isrc.baseline_system.data.Page
Page
p1051
(dp1052
g4
I00
sg5
Nsg8
Nsg9
I0
sg10
g1050
sbsVTv Game Show
p1053
(isrc.baseline_system.data.Page
Page
p1054
(dp1055
g4
I00
sg5
Nsg8
Nsg9
I0
sg10
g1053
sbsVSRM
p1056
(isrc.baseline_system.data.Page
Page
p1057
(dp1058
g4
I00
sg5
Nsg8
Nsg9
I977844
sg10
g1056
sbsVSRP
p1059
(isrc.baseline_system.data.Page
Page
p1060
(dp1061
g4
I00
sg5
Nsg8
Nsg9
I376515
sg10
g1059
sbsVScalable Data Structures
p1062
(isrc.baseline_system.data.Page
Page
p1063
(dp1064
g4
I00
sg5
Nsg8
Nsg9
I0
sg10
g1062
sbsVMajorcloud Service Providers
p1065
(isrc.baseline_system.data.Page
Page
p1066
(dp1067
g4
I00
sg5
Nsg8
Nsg9
I0
sg10
g1065
sbsVcloud product suite
p1068
(isrc.baseline_system.data.Page
Page
p1069
(dp1070
g4
I00
sg5
Nsg8
Nsg9
I0
sg10
g1068
sbsVNXP Semiconductor stock
p1071
(isrc.baseline_system.data.Page
Page
p1072
(dp1073
g4
I00
sg5
Nsg8
Nsg9
I0
sg10
g1071
sbsVNMT
p1074
(isrc.baseline_system.data.Page
Page
p1075
(dp1076
g4
I00
sg5
Nsg8
Nsg9
I566431
sg10
g1074
sbsVTDE
p1077
(isrc.baseline_system.data.Page
Page
p1078
(dp1079
g4
I00
sg5
Nsg8
Nsg9
I3084074
sg10
g1077
sbsVape
p1080
(isrc.baseline_system.data.Page
Page
p1081
(dp1082
g4
I00
sg5
(lp1083
Vape
p1084
asg8
Nsg9
I229914
sg10
g1080
sbsg722
g720
sVCommon Weakness Enumeration
p1085
(isrc.baseline_system.data.Page
Page
p1086
(dp1087
g4
I00
sg5
(lp1088
VCWE
p1089
asg8
Nsg9
I27477352
sg10
g1085
sbsVRob Arnolds piece
p1090
(isrc.baseline_system.data.Page
Page
p1091
(dp1092
g4
I00
sg5
Nsg8
Nsg9
I0
sg10
g1090
sbsVidentity management service
p1093
(isrc.baseline_system.data.Page
Page
p1094
(dp1095
g4
I00
sg5
Nsg8
Nsg9
I0
sg10
g1093
sbsVAutism spectrum
p1096
(isrc.baseline_system.data.Page
Page
p1097
(dp1098
g4
I00
sg5
(lp1099
Vautism spectrum disorders
p1100
asg8
Nsg9
I29113700
sg10
g1096
sbsVSmall Business Innovation Research
p1101
(isrc.baseline_system.data.Page
Page
p1102
(dp1103
g4
I00
sg5
Nsg8
Nsg9
I1930052
sg10
g1101
sbsVcustomer service rep
p1104
(isrc.baseline_system.data.Page
Page
p1105
(dp1106
g4
I00
sg5
Nsg8
Nsg9
I0
sg10
g1104
sbsVField Programmable Gate Arrays
p1107
(isrc.baseline_system.data.Page
Page
p1108
(dp1109
g4
I00
sg5
Nsg8
Nsg9
I0
sg10
g1107
sbsVNetwork video recorder
p1110
(isrc.baseline_system.data.Page
Page
p1111
(dp1112
g4
I00
sg5
Nsg8
Nsg9
I28776425
sg10
g1110
sbsVAmaryllos dynamic peer
p1113
(isrc.baseline_system.data.Page
Page
p1114
(dp1115
g4
I00
sg5
Nsg8
Nsg9
I0
sg10
g1113
sbsVVision Processing Unit
p1116
(isrc.baseline_system.data.Page
Page
p1117
(dp1118
g4
I01
sg5
Nsg8
(isrc.baseline_system.data.Page
Page
p1119
(dp1120
g4
I00
sg5
Nsg8
Nsg9
I50228744
sg10
VVision processing unit
p1121
sbsg9
I50279559
sg10
g1116
sbsg777
g769
sVSql Query Language
p1122
(isrc.baseline_system.data.Page
Page
p1123
(dp1124
g4
I00
sg5
Nsg8
Nsg9
I0
sg10
g1122
sbsVchief data scientist
p1125
(isrc.baseline_system.data.Page
Page
p1126
(dp1127
g4
I00
sg5
Nsg8
Nsg9
I0
sg10
g1125
sbsVhybrid cloud market
p1128
(isrc.baseline_system.data.Page
Page
p1129
(dp1130
g4
I00
sg5
Nsg8
Nsg9
I0
sg10
g1128
sbsVLanguage Understanding Intelligent Service
p1131
(isrc.baseline_system.data.Page
Page
p1132
(dp1133
g4
I00
sg5
Nsg8
Nsg9
I0
sg10
g1131
sbsVCustomer-Relationship Management
p1134
(isrc.baseline_system.data.Page
Page
p1135
(dp1136
g4
I00
sg5
Nsg8
Nsg9
I0
sg10
g1134
sbsVAsia-Pacific Economic Cooperation
p1137
(isrc.baseline_system.data.Page
Page
p1138
(dp1139
g4
I00
sg5
(lp1140
VAPEC
p1141
asg8
Nsg9
I135976
sg10
g1137
sbsVBrocade Communications Systems
p1142
(isrc.baseline_system.data.Page
Page
p1143
(dp1144
g4
I00
sg5
(lp1145
VBrocade Communications Systems, Inc.
p1146
aVBrocade Communications Systems, Inc
p1147
asg8
Nsg9
I2226537
sg10
g1142
sbsVIBM Studios Singapore
p1148
(isrc.baseline_system.data.Page
Page
p1149
(dp1150
g4
I00
sg5
Nsg8
Nsg9
I0
sg10
g1148
sbsVcognitive pitch competition
p1151
(isrc.baseline_system.data.Page
Page
p1152
(dp1153
g4
I00
sg5
Nsg8
Nsg9
I0
sg10
g1151
sbsVAccurate Speech Recognition
p1154
(isrc.baseline_system.data.Page
Page
p1155
(dp1156
g4
I00
sg5
Nsg8
Nsg9
I0
sg10
g1154
sbsVHPC
p1157
(isrc.baseline_system.data.Page
Page
p1158
(dp1159
g4
I00
sg5
Nsg8
Nsg9
I832525
sg10
g1157
sbsVSolid-State Drives
p1160
(isrc.baseline_system.data.Page
Page
p1161
(dp1162
g4
I00
sg5
Nsg8
Nsg9
I0
sg10
g1160
sbsVcustomer support service
p1163
(isrc.baseline_system.data.Page
Page
p1164
(dp1165
g4
I00
sg5
Nsg8
Nsg9
I0
sg10
g1163
sbsVInstant Alarm Monitoring
p1166
(isrc.baseline_system.data.Page
Page
p1167
(dp1168
g4
I00
sg5
Nsg8
Nsg9
I0
sg10
g1166
sbsVVxBlock CI systems
p1169
(isrc.baseline_system.data.Page
Page
p1170
(dp1171
g4
I00
sg5
Nsg8
Nsg9
I0
sg10
g1169
sbsVEnterprise Cloud Market
p1172
(isrc.baseline_system.data.Page
Page
p1173
(dp1174
g4
I00
sg5
Nsg8
Nsg9
I0
sg10
g1172
sbsVpersonal computing market
p1175
(isrc.baseline_system.data.Page
Page
p1176
(dp1177
g4
I00
sg5
Nsg8
Nsg9
I0
sg10
g1175
sbsVKurdistan Democratic Party
p1178
(isrc.baseline_system.data.Page
Page
p1179
(dp1180
g4
I00
sg5
Nsg8
Nsg9
I25659771
sg10
g1178
sbsVNIPS
p1181
(isrc.baseline_system.data.Page
Page
p1182
(dp1183
g4
I00
sg5
Nsg8
Nsg9
I6730351
sg10
g1181
sbsVconvolutional neural nets
p1184
(isrc.baseline_system.data.Page
Page
p1185
(dp1186
g4
I01
sg5
Nsg8
(isrc.baseline_system.data.Page
Page
p1187
(dp1188
g4
I00
sg5
(lp1189
VCNN
p1190
aVConvNet
p1191
aVConvolutional Nets
p1192
aVConvolutional Networks
p1193
aVConvolutional Network
p1194
aVConvolutional Neural Networks
p1195
aVConvolution Neural Network
p1196
asg8
Nsg9
I40409788
sg10
VConvolutional neural network
p1197
sbsg9
I53994811
sg10
g1184
sbsVClimate Change Deniers
p1198
(isrc.baseline_system.data.Page
Page
p1199
(dp1200
g4
I00
sg5
Nsg8
Nsg9
I0
sg10
g1198
sbsVBusiness School Talent
p1201
(isrc.baseline_system.data.Page
Page
p1202
(dp1203
g4
I00
sg5
Nsg8
Nsg9
I0
sg10
g1201
sbsVEntire Smartphone Lifecycle
p1204
(isrc.baseline_system.data.Page
Page
p1205
(dp1206
g4
I00
sg5
Nsg8
Nsg9
I0
sg10
g1204
sbsVGreenfield It Solutions
p1207
(isrc.baseline_system.data.Page
Page
p1208
(dp1209
g4
I00
sg5
Nsg8
Nsg9
I0
sg10
g1207
sbsVNational Retail Federation
p1210
(isrc.baseline_system.data.Page
Page
p1211
(dp1212
g4
I00
sg5
Nsg8
Nsg9
I8797478
sg10
g1210
sbsVCloud-Based Security Service
p1213
(isrc.baseline_system.data.Page
Page
p1214
(dp1215
g4
I00
sg5
Nsg8
Nsg9
I0
sg10
g1213
sbsVImportant Digital Movements
p1216
(isrc.baseline_system.data.Page
Page
p1217
(dp1218
g4
I00
sg5
Nsg8
Nsg9
I0
sg10
g1216
sbsVDistributed And Non-Distributed Attention
p1219
(isrc.baseline_system.data.Page
Page
p1220
(dp1221
g4
I00
sg5
Nsg8
Nsg9
I0
sg10
g1219
sbsVTri
p1222
(isrc.baseline_system.data.Page
Page
p1223
(dp1224
g4
I00
sg5
Nsg8
Nsg9
I103529
sg10
g1222
sbsVInteractive Voice Response
p1225
(isrc.baseline_system.data.Page
Page
p1226
(dp1227
g4
I01
sg5
Nsg8
(isrc.baseline_system.data.Page
Page
p1228
(dp1229
g4
I00
sg5
(lp1230
VInteractive Voice Response
p1231
asg8
Nsg9
I162186
sg10
VInteractive voice response
p1232
sbsg9
I162310
sg10
g1225
sbsg523
g519
sVBrazilian police arrest
p1233
(isrc.baseline_system.data.Page
Page
p1234
(dp1235
g4
I00
sg5
Nsg8
Nsg9
I0
sg10
g1233
sbsVChallenge Probably Calls
p1236
(isrc.baseline_system.data.Page
Page
p1237
(dp1238
g4
I00
sg5
Nsg8
Nsg9
I0
sg10
g1236
sbsVcontainer management portal
p1239
(isrc.baseline_system.data.Page
Page
p1240
(dp1241
g4
I00
sg5
Nsg8
Nsg9
I0
sg10
g1239
sbsVelectronic medical records
p1242
(isrc.baseline_system.data.Page
Page
p1243
(dp1244
g4
I01
sg5
Nsg8
(isrc.baseline_system.data.Page
Page
p1245
(dp1246
g4
I00
sg5
(lp1247
VEHR
p1248
aVelectronic medical record
p1249
aVEMR
p1250
asg8
Nsg9
I1129641
sg10
VElectronic health record
p1251
sbsg9
I860140
sg10
g1242
sbsVLight-emitting diode
p1252
(isrc.baseline_system.data.Page
Page
p1253
(dp1254
g4
I00
sg5
(lp1255
VLED
p1256
asg8
Nsg9
I18290
sg10
g1252
sbsVData Science Toolkit
p1257
(isrc.baseline_system.data.Page
Page
p1258
(dp1259
g4
I00
sg5
Nsg8
Nsg9
I0
sg10
g1257
sbsVTru
p1260
(isrc.baseline_system.data.Page
Page
p1261
(dp1262
g4
I00
sg5
Nsg8
Nsg9
I8738251
sg10
g1260
sbsVCustomer Service Rep
p1263
(isrc.baseline_system.data.Page
Page
p1264
(dp1265
g4
I00
sg5
Nsg8
Nsg9
I0
sg10
g1263
sbsVsecurity
p1266
(isrc.baseline_system.data.Page
Page
p1267
(dp1268
g4
I00
sg5
Nsg8
Nsg9
I41684
sg10
g1266
sbsVInitial Public Offer
p1269
(isrc.baseline_system.data.Page
Page
p1270
(dp1271
g4
I01
sg5
Nsg8
(isrc.baseline_system.data.Page
Page
p1272
(dp1273
g4
I00
sg5
(lp1274
VIPO
p1275
asg8
Nsg9
I63879
sg10
VInitial public offering
p1276
sbsg9
I17921691
sg10
g1269
sbsVexponential moving average
p1277
(isrc.baseline_system.data.Page
Page
p1278
(dp1279
g4
I01
sg5
Nsg8
(isrc.baseline_system.data.Page
Page
p1280
(dp1281
g4
I00
sg5
Nsg8
Nsg9
I990809
sg10
VMoving average
p1282
sbsg9
I5267078
sg10
g1277
sbsVDeepmind Artificial Intelligence
p1283
(isrc.baseline_system.data.Page
Page
p1284
(dp1285
g4
I00
sg5
Nsg8
Nsg9
I0
sg10
g1283
sbsVCascading Style Sheets
p1286
(isrc.baseline_system.data.Page
Page
p1287
(dp1288
g4
I00
sg5
(lp1289
VCSS
p1290
asg8
Nsg9
I23290197
sg10
g1286
sbsVMajor League Baseball
p1291
(isrc.baseline_system.data.Page
Page
p1292
(dp1293
g4
I00
sg5
(lp1294
VMLB
p1295
aVMajor League
p1296
asg8
Nsg9
I38776
sg10
g1291
sbsVProgrammable Logic Components
p1297
(isrc.baseline_system.data.Page
Page
p1298
(dp1299
g4
I00
sg5
Nsg8
Nsg9
I0
sg10
g1297
sbsVSCM
p1300
(isrc.baseline_system.data.Page
Page
p1301
(dp1302
g4
I00
sg5
Nsg8
Nsg9
I961486
sg10
g1300
sbsVPTL
p1303
(isrc.baseline_system.data.Page
Page
p1304
(dp1305
g4
I00
sg5
Nsg8
Nsg9
I390559
sg10
g1303
sbsVPresentation Of Information
p1306
(isrc.baseline_system.data.Page
Page
p1307
(dp1308
g4
I00
sg5
Nsg8
Nsg9
I0
sg10
g1306
sbsVPTC
p1309
(isrc.baseline_system.data.Page
Page
p1310
(dp1311
g4
I00
sg5
Nsg8
Nsg9
I482141
sg10
g1309
sbsVcomments
p1312
(isrc.baseline_system.data.Page
Page
p1313
(dp1314
g4
I01
sg5
Nsg8
(isrc.baseline_system.data.Page
Page
p1315
(dp1316
g4
I00
sg5
Nsg8
Nsg9
I7969873
sg10
VComment
p1317
sbsg9
I243314
sg10
g1312
sbsVUnited States dollar
p1318
(isrc.baseline_system.data.Page
Page
p1319
(dp1320
g4
I00
sg5
(lp1321
VUSD
p1322
aV$
p1323
aVUS dollar
p1324
aVUS$
p1325
aVAmerican dollar
p1326
asg8
Nsg9
I18717338
sg10
g1318
sbsVLes
p1327
(isrc.baseline_system.data.Page
Page
p1328
(dp1329
g4
I01
sg5
Nsg8
(isrc.baseline_system.data.Page
Page
p1330
(dp1331
g4
I00
sg5
Nsg8
Nsg9
I1909496
sg10
VLES
p1332
sbsg9
I30096582
sg10
g1327
sbsVInternet service provider
p1333
(isrc.baseline_system.data.Page
Page
p1334
(dp1335
g4
I00
sg5
(lp1336
VISP
p1337
asg8
Nsg9
I100245
sg10
g1333
sbsVcloud IaaS platform
p1338
(isrc.baseline_system.data.Page
Page
p1339
(dp1340
g4
I00
sg5
Nsg8
Nsg9
I0
sg10
g1338
sbsVData Management Platform
p1341
(isrc.baseline_system.data.Page
Page
p1342
(dp1343
g4
I00
sg5
Nsg8
Nsg9
I0
sg10
g1341
sbsVData Science Team
p1344
(isrc.baseline_system.data.Page
Page
p1345
(dp1346
g4
I00
sg5
Nsg8
Nsg9
I0
sg10
g1344
sbsVMPC
p1347
(isrc.baseline_system.data.Page
Page
p1348
(dp1349
g4
I00
sg5
Nsg8
Nsg9
I194817
sg10
g1347
sbsVTone Color Scheme
p1350
(isrc.baseline_system.data.Page
Page
p1351
(dp1352
g4
I00
sg5
Nsg8
Nsg9
I0
sg10
g1350
sbsVAVT
p1353
(isrc.baseline_system.data.Page
Page
p1354
(dp1355
g4
I00
sg5
Nsg8
Nsg9
I2515472
sg10
g1353
sbsVConsumer More Power
p1356
(isrc.baseline_system.data.Page
Page
p1357
(dp1358
g4
I00
sg5
Nsg8
Nsg9
I0
sg10
g1356
sbsVAdvanced Message Queuing Protocol
p1359
(isrc.baseline_system.data.Page
Page
p1360
(dp1361
g4
I00
sg5
(lp1362
VAMQP
p1363
asg8
Nsg9
I5657545
sg10
g1359
sbsVconsumer-electronics show
p1364
(isrc.baseline_system.data.Page
Page
p1365
(dp1366
g4
I00
sg5
Nsg8
Nsg9
I0
sg10
g1364
sbsVCognitive Machine Learning
p1367
(isrc.baseline_system.data.Page
Page
p1368
(dp1369
g4
I00
sg5
Nsg8
Nsg9
I0
sg10
g1367
sbsVRedundant Secure Systems
p1370
(isrc.baseline_system.data.Page
Page
p1371
(dp1372
g4
I00
sg5
Nsg8
Nsg9
I0
sg10
g1370
sbsVKiller DoubleShot Pro
p1373
(isrc.baseline_system.data.Page
Page
p1374
(dp1375
g4
I00
sg5
Nsg8
Nsg9
I0
sg10
g1373
sbsVreal estate purchases
p1376
(isrc.baseline_system.data.Page
Page
p1377
(dp1378
g4
I00
sg5
Nsg8
Nsg9
I0
sg10
g1376
sbsVsignificant societal dislocation
p1379
(isrc.baseline_system.data.Page
Page
p1380
(dp1381
g4
I00
sg5
Nsg8
Nsg9
I0
sg10
g1379
sbsVAI product efforts
p1382
(isrc.baseline_system.data.Page
Page
p1383
(dp1384
g4
I00
sg5
Nsg8
Nsg9
I0
sg10
g1382
sbsVLevodopa Equivalent Dose
p1385
(isrc.baseline_system.data.Page
Page
p1386
(dp1387
g4
I00
sg5
Nsg8
Nsg9
I0
sg10
g1385
sbsVlethal autonomous weapons systems
p1388
(isrc.baseline_system.data.Page
Page
p1389
(dp1390
g4
I00
sg5
Nsg8
Nsg9
I0
sg10
g1388
sbsVSLA
p1391
(isrc.baseline_system.data.Page
Page
p1392
(dp1393
g4
I00
sg5
Nsg8
Nsg9
I29592
sg10
g1391
sbsVChief executive officer
p1394
(isrc.baseline_system.data.Page
Page
p1395
(dp1396
g4
I00
sg5
(lp1397
VCEO
p1398
aVmanaging director
p1399
aVexecutive director
p1400
aVManaging Director
p1401
aVChief executive officer
p1402
asg8
Nsg9
I52234
sg10
g1394
sbsVCurrent Android Phones
p1403
(isrc.baseline_system.data.Page
Page
p1404
(dp1405
g4
I00
sg5
Nsg8
Nsg9
I0
sg10
g1403
sbsVQMD
p1406
(isrc.baseline_system.data.Page
Page
p1407
(dp1408
g4
I01
sg5
Nsg8
(isrc.baseline_system.data.Page
Page
p1409
(dp1410
g4
I00
sg5
(lp1411
VQED
p1412
asg8
Nsg9
I25268
sg10
VQuantum electrodynamics
p1413
sbsg9
I17528268
sg10
g1406
sbsVGMO
p1414
(isrc.baseline_system.data.Page
Page
p1415
(dp1416
g4
I01
sg5
Nsg8
g859
sg9
I15407514
sg10
g1414
sbsVCloud Giants Microsoft
p1417
(isrc.baseline_system.data.Page
Page
p1418
(dp1419
g4
I00
sg5
Nsg8
Nsg9
I0
sg10
g1417
sbsVADP
p1420
(isrc.baseline_system.data.Page
Page
p1421
(dp1422
g4
I00
sg5
(lp1423
V.adp
p1424
aVADP (disambiguation)
p1425
asg8
Nsg9
I89225
sg10
g1420
sbsVconsumer more power
p1426
(isrc.baseline_system.data.Page
Page
p1427
(dp1428
g4
I00
sg5
Nsg8
Nsg9
I0
sg10
g1426
sbsVHost Card Emulation
p1429
(isrc.baseline_system.data.Page
Page
p1430
(dp1431
g4
I00
sg5
Nsg8
Nsg9
I0
sg10
g1429
sbsVADA
p1432
(isrc.baseline_system.data.Page
Page
p1433
(dp1434
g4
I00
sg5
Nsg8
Nsg9
I676376
sg10
g1432
sbsVClinical Data Warehouses
p1435
(isrc.baseline_system.data.Page
Page
p1436
(dp1437
g4
I00
sg5
Nsg8
Nsg9
I0
sg10
g1435
sbsVimpartial peer review
p1438
(isrc.baseline_system.data.Page
Page
p1439
(dp1440
g4
I00
sg5
Nsg8
Nsg9
I0
sg10
g1438
sbsVCIRP
p1441
(isrc.baseline_system.data.Page
Page
p1442
(dp1443
g4
I01
sg5
Nsg8
(isrc.baseline_system.data.Page
Page
p1444
(dp1445
g4
I00
sg5
Nsg8
Nsg9
I12990736
sg10
VHigher Education Research Institute
p1446
sbsg9
I29640444
sg10
g1441
sbsVProgrammable Automation Controller
p1447
(isrc.baseline_system.data.Page
Page
p1448
(dp1449
g4
I00
sg5
Nsg8
Nsg9
I0
sg10
g1447
sbsVQCT
p1450
(isrc.baseline_system.data.Page
Page
p1451
(dp1452
g4
I01
sg5
Nsg8
g477
sg9
I11593425
sg10
g1450
sbsVGlobal Technology Service
p1453
(isrc.baseline_system.data.Page
Page
p1454
(dp1455
g4
I00
sg5
Nsg8
Nsg9
I0
sg10
g1453
sbsVImplement Industrial Iot
p1456
(isrc.baseline_system.data.Page
Page
p1457
(dp1458
g4
I00
sg5
Nsg8
Nsg9
I0
sg10
g1456
sbsVsoftware download store
p1459
(isrc.baseline_system.data.Page
Page
p1460
(dp1461
g4
I00
sg5
Nsg8
Nsg9
I0
sg10
g1459
sbsVCloudera Distribution Hadoop
p1462
(isrc.baseline_system.data.Page
Page
p1463
(dp1464
g4
I00
sg5
Nsg8
Nsg9
I0
sg10
g1462
sbsVSim
p1465
(isrc.baseline_system.data.Page
Page
p1466
(dp1467
g4
I00
sg5
Nsg8
Nsg9
I728588
sg10
g1465
sbsVBusiness Development Support
p1468
(isrc.baseline_system.data.Page
Page
p1469
(dp1470
g4
I00
sg5
Nsg8
Nsg9
I0
sg10
g1468
sbsVImplement Industrial IoT
p1471
(isrc.baseline_system.data.Page
Page
p1472
(dp1473
g4
I00
sg5
Nsg8
Nsg9
I0
sg10
g1471
sbsVenterprise IT shops
p1474
(isrc.baseline_system.data.Page
Page
p1475
(dp1476
g4
I00
sg5
Nsg8
Nsg9
I0
sg10
g1474
sbsVGreenfield IT solutions
p1477
(isrc.baseline_system.data.Page
Page
p1478
(dp1479
g4
I00
sg5
Nsg8
Nsg9
I0
sg10
g1477
sbsVAnitaB.org
p1480
(isrc.baseline_system.data.Page
Page
p1481
(dp1482
g4
I00
sg5
(lp1483
VAnita Borg Institute
p1484
aVABI
p1485
asg8
Nsg9
I32234869
sg10
g1480
sbsVVoice Codec Synthesizers
p1486
(isrc.baseline_system.data.Page
Page
p1487
(dp1488
g4
I00
sg5
Nsg8
Nsg9
I0
sg10
g1486
sbsVESL
p1489
(isrc.baseline_system.data.Page
Page
p1490
(dp1491
g4
I01
sg5
Nsg8
(isrc.baseline_system.data.Page
Page
p1492
(dp1493
g4
I00
sg5
(lp1494
VEnglish as a second or foreign language
p1495
aVESL
p1496
aVEnglish as a foreign language
p1497
aVEFL
p1498
aVEnglish as an additional language
p1499
aVEAL
p1500
aVEnglish for speakers of other languages
p1501
aVESOL
p1502
asg8
Nsg9
I415406
sg10
VEnglish as a second or foreign language
p1503
sbsg9
I13643025
sg10
g1489
sbsVcompanys sole focus
p1504
(isrc.baseline_system.data.Page
Page
p1505
(dp1506
g4
I00
sg5
Nsg8
Nsg9
I0
sg10
g1504
sbsVapplication programming interfaces
p1507
(isrc.baseline_system.data.Page
Page
p1508
(dp1509
g4
I01
sg5
Nsg8
(isrc.baseline_system.data.Page
Page
p1510
(dp1511
g4
I00
sg5
(lp1512
VAPI
p1513
aVApplication programming interface
p1514
asg8
Nsg9
I27697009
sg10
VApplication programming interface
p1515
sbsg9
I8908536
sg10
g1507
sbsVESI
p1516
(isrc.baseline_system.data.Page
Page
p1517
(dp1518
g4
I00
sg5
Nsg8
Nsg9
I625463
sg10
g1516
sbsVIda
p1519
(isrc.baseline_system.data.Page
Page
p1520
(dp1521
g4
I00
sg5
Nsg8
Nsg9
I186873
sg10
g1519
sbsVelectronic medical record
p1522
(isrc.baseline_system.data.Page
Page
p1523
(dp1524
g4
I01
sg5
Nsg8
(isrc.baseline_system.data.Page
Page
p1525
(dp1526
g4
I00
sg5
(lp1527
VEHR
p1528
aVelectronic medical record
p1529
aVEMR
p1530
asg8
Nsg9
I1129641
sg10
VElectronic health record
p1531
sbsg9
I930653
sg10
g1522
sbsVVSE
p1532
(isrc.baseline_system.data.Page
Page
p1533
(dp1534
g4
I00
sg5
Nsg8
Nsg9
I2142693
sg10
g1532
sbsVIntelligent IoT Service
p1535
(isrc.baseline_system.data.Page
Page
p1536
(dp1537
g4
I00
sg5
Nsg8
Nsg9
I0
sg10
g1535
sbsVchief cognitive officer
p1538
(isrc.baseline_system.data.Page
Page
p1539
(dp1540
g4
I00
sg5
Nsg8
Nsg9
I0
sg10
g1538
sbsVnatural language generation
p1541
(isrc.baseline_system.data.Page
Page
p1542
(dp1543
g4
I00
sg5
Nsg8
Nsg9
I301999
sg10
g1541
sbsVice
p1544
(isrc.baseline_system.data.Page
Page
p1545
(dp1546
g4
I00
sg5
(lp1547
Vsolid water
p1548
aVwater ice
p1549
aVwater
p1550
aVcrystalline water
p1551
aVfrozen water
p1552
aVfrozen ice
p1553
asg8
Nsg9
I14946
sg10
g1544
sbsVWord Error Rate
p1554
(isrc.baseline_system.data.Page
Page
p1555
(dp1556
g4
I00
sg5
Nsg8
Nsg9
I0
sg10
g1554
sbsVDevice Provision Strategies
p1557
(isrc.baseline_system.data.Page
Page
p1558
(dp1559
g4
I00
sg5
Nsg8
Nsg9
I0
sg10
g1557
sbsVDai
p1560
(isrc.baseline_system.data.Page
Page
p1561
(dp1562
g4
I00
sg5
Nsg8
Nsg9
I347991
sg10
g1560
sbsVTay chatbot returns
p1563
(isrc.baseline_system.data.Page
Page
p1564
(dp1565
g4
I00
sg5
Nsg8
Nsg9
I0
sg10
g1563
sbsVIntel Extreme Masters
p1566
(isrc.baseline_system.data.Page
Page
p1567
(dp1568
g4
I00
sg5
Nsg8
Nsg9
I31052923
sg10
g1566
sbsVToyota Production System
p1569
(isrc.baseline_system.data.Page
Page
p1570
(dp1571
g4
I00
sg5
Nsg8
Nsg9
I342815
sg10
g1569
sbsVLCD
p1572
(isrc.baseline_system.data.Page
Page
p1573
(dp1574
g4
I01
sg5
Nsg8
(isrc.baseline_system.data.Page
Page
p1575
(dp1576
g4
I00
sg5
(lp1577
VLCD
p1578
asg8
Nsg9
I17932
sg10
VLiquid-crystal display
p1579
sbsg9
I1133895
sg10
g1572
sbsVFIA
p1580
(isrc.baseline_system.data.Page
Page
p1581
(dp1582
g4
I01
sg5
Nsg8
(isrc.baseline_system.data.Page
Page
p1583
(dp1584
g4
I00
sg5
(lp1585
V\u0641\u06cc\u0627
p1586
aVFIA
p1587
aVFederation Internationale de l'Automobile
p1588
asg8
Nsg9
I248019
sg10
VFdration Internationale de l'Automobile
p1589
sbsg9
I251100
sg10
g1580
sbsVcomplex data sets
p1590
(isrc.baseline_system.data.Page
Page
p1591
(dp1592
g4
I00
sg5
Nsg8
Nsg9
I0
sg10
g1590
sbsVInfrastructure Service Providers
p1593
(isrc.baseline_system.data.Page
Page
p1594
(dp1595
g4
I00
sg5
Nsg8
Nsg9
I0
sg10
g1593
sbsVDual Sim Tray
p1596
(isrc.baseline_system.data.Page
Page
p1597
(dp1598
g4
I00
sg5
Nsg8
Nsg9
I0
sg10
g1596
sbsVType 1 Diabetes
p1599
(isrc.baseline_system.data.Page
Page
p1600
(dp1601
g4
I01
sg5
Nsg8
(isrc.baseline_system.data.Page
Page
p1602
(dp1603
g4
I00
sg5
(lp1604
VIDDM
p1605
aVinsulin-dependent diabetes mellitus
p1606
aVtype I diabetes mellitus
p1607
aVtype 1 diabetes
p1608
aVT1DM
p1609
aVinsulin dependent diabetes
p1610
aVjuvenile diabetes
p1611
aVdiabetes mellitus juvenile type
p1612
asg8
Nsg9
I2812725
sg10
VDiabetes mellitus type 1
p1613
sbsg9
I11088461
sg10
g1599
sbsVCurrent Market Research
p1614
(isrc.baseline_system.data.Page
Page
p1615
(dp1616
g4
I00
sg5
Nsg8
Nsg9
I0
sg10
g1614
sbsVApplication Programming Interfaces
p1617
(isrc.baseline_system.data.Page
Page
p1618
(dp1619
g4
I01
sg5
Nsg8
(isrc.baseline_system.data.Page
Page
p1620
(dp1621
g4
I00
sg5
(lp1622
VAPI
p1623
aVApplication programming interface
p1624
asg8
Nsg9
I27697009
sg10
VApplication programming interface
p1625
sbsg9
I102209
sg10
g1617
sbsVautomakers driver assistance systems
p1626
(isrc.baseline_system.data.Page
Page
p1627
(dp1628
g4
I00
sg5
Nsg8
Nsg9
I0
sg10
g1626
sbsVCMO
p1629
(isrc.baseline_system.data.Page
Page
p1630
(dp1631
g4
I00
sg5
Nsg8
Nsg9
I47145
sg10
g1629
sbsVCML
p1632
(isrc.baseline_system.data.Page
Page
p1633
(dp1634
g4
I00
sg5
Nsg8
Nsg9
I559832
sg10
g1632
sbsVPCS
p1635
(isrc.baseline_system.data.Page
Page
p1636
(dp1637
g4
I00
sg5
Nsg8
Nsg9
I24809
sg10
g1635
sbsVThrust Management Computer
p1638
(isrc.baseline_system.data.Page
Page
p1639
(dp1640
g4
I00
sg5
Nsg8
Nsg9
I0
sg10
g1638
sbsVPCI
p1641
(isrc.baseline_system.data.Page
Page
p1642
(dp1643
g4
I00
sg5
Nsg8
Nsg9
I1108824
sg10
g1641
sbsVSaas Enablement Framework
p1644
(isrc.baseline_system.data.Page
Page
p1645
(dp1646
g4
I00
sg5
Nsg8
Nsg9
I0
sg10
g1644
sbsVPCM
p1647
(isrc.baseline_system.data.Page
Page
p1648
(dp1649
g4
I01
sg5
Nsg8
(isrc.baseline_system.data.Page
Page
p1650
(dp1651
g4
I00
sg5
(lp1652
VPCM
p1653
asg8
Nsg9
I25513330
sg10
VPulse-code modulation
p1654
sbsg9
I5209039
sg10
g1647
sbsVCMU
p1655
(isrc.baseline_system.data.Page
Page
p1656
(dp1657
g4
I00
sg5
Nsg8
Nsg9
I61137
sg10
g1655
sbsVCMS
p1658
(isrc.baseline_system.data.Page
Page
p1659
(dp1660
g4
I00
sg5
Nsg8
Nsg9
I72235
sg10
g1658
sbsVCMR
p1661
(isrc.baseline_system.data.Page
Page
p1662
(dp1663
g4
I00
sg5
Nsg8
Nsg9
I2585785
sg10
g1661
sbsVCMP
p1664
(isrc.baseline_system.data.Page
Page
p1665
(dp1666
g4
I00
sg5
Nsg8
Nsg9
I910188
sg10
g1664
sbsVBox Content Services
p1667
(isrc.baseline_system.data.Page
Page
p1668
(dp1669
g4
I00
sg5
Nsg8
Nsg9
I0
sg10
g1667
sbsVAMQP
p1670
(isrc.baseline_system.data.Page
Page
p1671
(dp1672
g4
I01
sg5
Nsg8
g1360
sg9
I5657318
sg10
g1670
sbsVChief Engineer Doomed
p1673
(isrc.baseline_system.data.Page
Page
p1674
(dp1675
g4
I00
sg5
Nsg8
Nsg9
I0
sg10
g1673
sbsg418
g413
sVCross-sectional study
p1676
(isrc.baseline_system.data.Page
Page
p1677
(dp1678
g4
I00
sg5
Nsg8
Nsg9
I1557627
sg10
g1676
sbsVGlobal Technology Services
p1679
(isrc.baseline_system.data.Page
Page
p1680
(dp1681
g4
I00
sg5
Nsg8
Nsg9
I0
sg10
g1679
sbsVapplication program interface
p1682
(isrc.baseline_system.data.Page
Page
p1683
(dp1684
g4
I01
sg5
Nsg8
(isrc.baseline_system.data.Page
Page
p1685
(dp1686
g4
I00
sg5
(lp1687
VAPI
p1688
aVApplication programming interface
p1689
asg8
Nsg9
I27697009
sg10
VApplication programming interface
p1690
sbsg9
I3990183
sg10
g1682
sbsVDST
p1691
(isrc.baseline_system.data.Page
Page
p1692
(dp1693
g4
I01
sg5
Nsg8
(isrc.baseline_system.data.Page
Page
p1694
(dp1695
g4
I00
sg5
(lp1696
VDST
p1697
aVsummer time
p1698
aVDaylight Saving Time
p1699
asg8
Nsg9
I47548
sg10
VDaylight saving time
p1700
sbsg9
I48166889
sg10
g1691
sbsVDSS
p1701
(isrc.baseline_system.data.Page
Page
p1702
(dp1703
g4
I00
sg5
Nsg8
Nsg9
I422966
sg10
g1701
sbsVDSP
p1704
(isrc.baseline_system.data.Page
Page
p1705
(dp1706
g4
I00
sg5
Nsg8
Nsg9
I44020
sg10
g1704
sbsVDSL
p1707
(isrc.baseline_system.data.Page
Page
p1708
(dp1709
g4
I01
sg5
Nsg8
(isrc.baseline_system.data.Page
Page
p1710
(dp1711
g4
I00
sg5
Nsg8
Nsg9
I41038
sg10
VDigital subscriber line
p1712
sbsg9
I4652927
sg10
g1707
sbsVMobile Computing Market
p1713
(isrc.baseline_system.data.Page
Page
p1714
(dp1715
g4
I00
sg5
Nsg8
Nsg9
I0
sg10
g1713
sbsVDSE
p1716
(isrc.baseline_system.data.Page
Page
p1717
(dp1718
g4
I00
sg5
Nsg8
Nsg9
I1720184
sg10
g1716
sbsVUHD
p1719
(isrc.baseline_system.data.Page
Page
p1720
(dp1721
g4
I00
sg5
Nsg8
Nsg9
I5359074
sg10
g1719
sbsVsearch analytics firmsSpyFu
p1722
(isrc.baseline_system.data.Page
Page
p1723
(dp1724
g4
I00
sg5
Nsg8
Nsg9
I0
sg10
g1722
sbsVaccelerated processing unit
p1725
(isrc.baseline_system.data.Page
Page
p1726
(dp1727
g4
I01
sg5
Nsg8
(isrc.baseline_system.data.Page
Page
p1728
(dp1729
g4
I00
sg5
(lp1730
VOntario (processor)
p1731
aVZacate
p1732
aVAMD E350
p1733
aVAmd e300
p1734
aVAmd trinity
p1735
aVAMD E450
p1736
aVAMD Trinity
p1737
aVAMD A10
p1738
aVAMD Fusion
p1739
aVAccelerated Processing Unit
p1740
aVAPU
p1741
asg8
Nsg9
I7612361
sg10
VAMD Accelerated Processing Unit
p1742
sbsg9
I24801791
sg10
g1725
sbsVContainer Management Portal
p1743
(isrc.baseline_system.data.Page
Page
p1744
(dp1745
g4
I00
sg5
Nsg8
Nsg9
I0
sg10
g1743
sbsVMaybank IB Research
p1746
(isrc.baseline_system.data.Page
Page
p1747
(dp1748
g4
I00
sg5
Nsg8
Nsg9
I0
sg10
g1746
sbsVVirtualized Network Function
p1749
(isrc.baseline_system.data.Page
Page
p1750
(dp1751
g4
I00
sg5
Nsg8
Nsg9
I0
sg10
g1749
sbsVSoftware feature
p1752
(isrc.baseline_system.data.Page
Page
p1753
(dp1754
g4
I00
sg5
(lp1755
Vfeature
p1756
aVcapability
p1757
asg8
Nsg9
I19218583
sg10
g1752
sbsVChief innovation officer
p1758
(isrc.baseline_system.data.Page
Page
p1759
(dp1760
g4
I00
sg5
(lp1761
Vchief technology innovation officer
p1762
aVCTIO
p1763
aVCINO
p1764
asg8
Nsg9
I28632367
sg10
g1758
sbsg1034
g1032
sVTechnology Type  SIMO
p1765
(isrc.baseline_system.data.Page
Page
p1766
(dp1767
g4
I00
sg5
Nsg8
Nsg9
I0
sg10
g1765
sbsVDOS
p1768
(isrc.baseline_system.data.Page
Page
p1769
(dp1770
g4
I00
sg5
(lp1771
VPC-compatible DOS
p1772
aVDOS
p1773
asg8
Nsg9
I21304364
sg10
g1768
sbsVMagnetic Resonance Imaging
p1774
(isrc.baseline_system.data.Page
Page
p1775
(dp1776
g4
I01
sg5
Nsg8
(isrc.baseline_system.data.Page
Page
p1777
(dp1778
g4
I00
sg5
(lp1779
VNMRI
p1780
aVMRI
p1781
asg8
Nsg9
I19446
sg10
VMagnetic resonance imaging
p1782
sbsg9
I55223
sg10
g1774
sbsVentire pharmaceutical industry
p1783
(isrc.baseline_system.data.Page
Page
p1784
(dp1785
g4
I00
sg5
Nsg8
Nsg9
I0
sg10
g1783
sbsVChief Marketing Officers
p1786
(isrc.baseline_system.data.Page
Page
p1787
(dp1788
g4
I00
sg5
Nsg8
Nsg9
I0
sg10
g1786
sbsVchief innovation officer
p1789
(isrc.baseline_system.data.Page
Page
p1790
(dp1791
g4
I00
sg5
(lp1792
Vchief technology innovation officer
p1793
aVCTIO
p1794
aVCINO
p1795
asg8
Nsg9
I28632367
sg10
g1789
sbsVBST
p1796
(isrc.baseline_system.data.Page
Page
p1797
(dp1798
g4
I00
sg5
Nsg8
Nsg9
I197178
sg10
g1796
sbsVReal Time Bidding
p1799
(isrc.baseline_system.data.Page
Page
p1800
(dp1801
g4
I01
sg5
Nsg8
(isrc.baseline_system.data.Page
Page
p1802
(dp1803
g4
I00
sg5
Nsg8
Nsg9
I33812598
sg10
VReal-time bidding
p1804
sbsg9
I35273524
sg10
g1799
sbsVAzure Cloud Services
p1805
(isrc.baseline_system.data.Page
Page
p1806
(dp1807
g4
I00
sg5
Nsg8
Nsg9
I0
sg10
g1805
sbsVVxblock Ci Systems
p1808
(isrc.baseline_system.data.Page
Page
p1809
(dp1810
g4
I00
sg5
Nsg8
Nsg9
I0
sg10
g1808
sbsg327
g323
sVUc Santa Cruz
p1811
(isrc.baseline_system.data.Page
Page
p1812
(dp1813
g4
I01
sg5
Nsg8
(isrc.baseline_system.data.Page
Page
p1814
(dp1815
g4
I00
sg5
(lp1816
VUC Santa Cruz
p1817
aVUCSC
p1818
asg8
Nsg9
I31923
sg10
VUniversity of California, Santa Cruz
p1819
sbsg9
I34374293
sg10
g1811
sbsVHGST Active Archive System
p1820
(isrc.baseline_system.data.Page
Page
p1821
(dp1822
g4
I00
sg5
Nsg8
Nsg9
I0
sg10
g1820
sbsVProduct Life Cycle/Management
p1823
(isrc.baseline_system.data.Page
Page
p1824
(dp1825
g4
I00
sg5
Nsg8
Nsg9
I0
sg10
g1823
sbsVMoral And Punitive Damages
p1826
(isrc.baseline_system.data.Page
Page
p1827
(dp1828
g4
I00
sg5
Nsg8
Nsg9
I0
sg10
g1826
sbsVPUE
p1829
(isrc.baseline_system.data.Page
Page
p1830
(dp1831
g4
I00
sg5
Nsg8
Nsg9
I22657992
sg10
g1829
sbsVCross Sectional Study
p1832
(isrc.baseline_system.data.Page
Page
p1833
(dp1834
g4
I00
sg5
Nsg8
Nsg9
I0
sg10
g1832
sbsVUWP
p1835
(isrc.baseline_system.data.Page
Page
p1836
(dp1837
g4
I00
sg5
Nsg8
Nsg9
I588459
sg10
g1835
sbsVERP
p1838
(isrc.baseline_system.data.Page
Page
p1839
(dp1840
g4
I00
sg5
Nsg8
Nsg9
I9712
sg10
g1838
sbsVInfrastructure Solutions Provider
p1841
(isrc.baseline_system.data.Page
Page
p1842
(dp1843
g4
I00
sg5
Nsg8
Nsg9
I0
sg10
g1841
sbsVVPs
p1844
(isrc.baseline_system.data.Page
Page
p1845
(dp1846
g4
I00
sg5
Nsg8
Nsg9
I0
sg10
g1844
sbsVcredit score engine
p1847
(isrc.baseline_system.data.Page
Page
p1848
(dp1849
g4
I00
sg5
Nsg8
Nsg9
I0
sg10
g1847
sbsVDriving Business Engagements
p1850
(isrc.baseline_system.data.Page
Page
p1851
(dp1852
g4
I00
sg5
Nsg8
Nsg9
I0
sg10
g1850
sbsVTotal addressable market
p1853
(isrc.baseline_system.data.Page
Page
p1854
(dp1855
g4
I00
sg5
Nsg8
Nsg9
I18683722
sg10
g1853
sbsVBAA
p1856
(isrc.baseline_system.data.Page
Page
p1857
(dp1858
g4
I00
sg5
Nsg8
Nsg9
I542371
sg10
g1856
sbsVcloud giants Microsoft
p1859
(isrc.baseline_system.data.Page
Page
p1860
(dp1861
g4
I00
sg5
Nsg8
Nsg9
I0
sg10
g1859
sbsVVPU
p1862
(isrc.baseline_system.data.Page
Page
p1863
(dp1864
g4
I00
sg5
Nsg8
Nsg9
I14425911
sg10
g1862
sbsVVPN
p1865
(isrc.baseline_system.data.Page
Page
p1866
(dp1867
g4
I01
sg5
Nsg8
(isrc.baseline_system.data.Page
Page
p1868
(dp1869
g4
I00
sg5
(lp1870
VVPN
p1871
asg8
Nsg9
I147130
sg10
VVirtual private network
p1872
sbsg9
I147128
sg10
g1865
sbsVSmart Robot Manufacturers
p1873
(isrc.baseline_system.data.Page
Page
p1874
(dp1875
g4
I00
sg5
Nsg8
Nsg9
I0
sg10
g1873
sbsVSTM
p1876
(isrc.baseline_system.data.Page
Page
p1877
(dp1878
g4
I00
sg5
Nsg8
Nsg9
I27775
sg10
g1876
sbsVvirtual private network
p1879
(isrc.baseline_system.data.Page
Page
p1880
(dp1881
g4
I00
sg5
(lp1882
VVPN
p1883
asg8
Nsg9
I147130
sg10
g1879
sbsVTata Consultancy Services
p1884
(isrc.baseline_system.data.Page
Page
p1885
(dp1886
g4
I00
sg5
(lp1887
VTCS
p1888
asg8
Nsg9
I284006
sg10
g1884
sbsVCloud Iaas Platform
p1889
(isrc.baseline_system.data.Page
Page
p1890
(dp1891
g4
I00
sg5
Nsg8
Nsg9
I0
sg10
g1889
sbsVUc San Diegox
p1892
(isrc.baseline_system.data.Page
Page
p1893
(dp1894
g4
I00
sg5
Nsg8
Nsg9
I0
sg10
g1892
sbsVConvolutional Neural Nets
p1895
(isrc.baseline_system.data.Page
Page
p1896
(dp1897
g4
I00
sg5
Nsg8
Nsg9
I0
sg10
g1895
sbsVRobot Operating System
p1898
(isrc.baseline_system.data.Page
Page
p1899
(dp1900
g4
I00
sg5
Nsg8
Nsg9
I19768790
sg10
g1898
sbsVDubai World Trade Centre
p1901
(isrc.baseline_system.data.Page
Page
p1902
(dp1903
g4
I00
sg5
(lp1904
VDWTC
p1905
asg8
Nsg9
I2487128
sg10
g1901
sbsVNCI
p1906
(isrc.baseline_system.data.Page
Page
p1907
(dp1908
g4
I00
sg5
Nsg8
Nsg9
I1568644
sg10
g1906
sbsVAutomated Business Incident
p1909
(isrc.baseline_system.data.Page
Page
p1910
(dp1911
g4
I00
sg5
Nsg8
Nsg9
I0
sg10
g1909
sbsVcustomer relationship management
p1912
(isrc.baseline_system.data.Page
Page
p1913
(dp1914
g4
I00
sg5
(lp1915
VCRM
p1916
aVCustomer Relationship Management System
p1917
aVCRM system
p1918
asg8
Nsg9
I6968
sg10
g1912
sbsVGraphical Processor Units
p1919
(isrc.baseline_system.data.Page
Page
p1920
(dp1921
g4
I00
sg5
Nsg8
Nsg9
I0
sg10
g1919
sbsVAzure CDN Services
p1922
(isrc.baseline_system.data.Page
Page
p1923
(dp1924
g4
I00
sg5
Nsg8
Nsg9
I0
sg10
g1922
sbsVExecuted Recovery Procedures
p1925
(isrc.baseline_system.data.Page
Page
p1926
(dp1927
g4
I00
sg5
Nsg8
Nsg9
I0
sg10
g1925
sbsVcritical intellectual property
p1928
(isrc.baseline_system.data.Page
Page
p1929
(dp1930
g4
I00
sg5
Nsg8
Nsg9
I0
sg10
g1928
sbsVTDIA
p1931
(isrc.baseline_system.data.Page
Page
p1932
(dp1933
g4
I00
sg5
Nsg8
Nsg9
I0
sg10
g1931
sbsVrobotic process automation
p1934
(isrc.baseline_system.data.Page
Page
p1935
(dp1936
g4
I00
sg5
Nsg8
Nsg9
I47642826
sg10
g1934
sbsVCards Fraud Detection
p1937
(isrc.baseline_system.data.Page
Page
p1938
(dp1939
g4
I00
sg5
Nsg8
Nsg9
I0
sg10
g1937
sbsVOpen Source Robotics Foundation
p1940
(isrc.baseline_system.data.Page
Page
p1941
(dp1942
g4
I00
sg5
Nsg8
Nsg9
I0
sg10
g1940
sbsVData-Driven Healthcare Applications
p1943
(isrc.baseline_system.data.Page
Page
p1944
(dp1945
g4
I00
sg5
Nsg8
Nsg9
I0
sg10
g1943
sbsVSBIR
p1946
(isrc.baseline_system.data.Page
Page
p1947
(dp1948
g4
I01
sg5
Nsg8
g1102
sg9
I1930068
sg10
g1946
sbsVRock-Solid Dividend Stocks
p1949
(isrc.baseline_system.data.Page
Page
p1950
(dp1951
g4
I00
sg5
Nsg8
Nsg9
I0
sg10
g1949
sbsVCompany Social Responsibility
p1952
(isrc.baseline_system.data.Page
Page
p1953
(dp1954
g4
I00
sg5
Nsg8
Nsg9
I0
sg10
g1952
sbsVDigital One Stop Ecosystem
p1955
(isrc.baseline_system.data.Page
Page
p1956
(dp1957
g4
I00
sg5
Nsg8
Nsg9
I0
sg10
g1955
sbsVTPU
p1958
(isrc.baseline_system.data.Page
Page
p1959
(dp1960
g4
I00
sg5
Nsg8
Nsg9
I479910
sg10
g1958
sbsVTPS
p1961
(isrc.baseline_system.data.Page
Page
p1962
(dp1963
g4
I00
sg5
Nsg8
Nsg9
I346199
sg10
g1961
sbsVAI alliance  Artificial intelligence
p1964
(isrc.baseline_system.data.Page
Page
p1965
(dp1966
g4
I00
sg5
Nsg8
Nsg9
I0
sg10
g1964
sbsg503
g498
sg367
g363
sVadvanced machine learning
p1967
(isrc.baseline_system.data.Page
Page
p1968
(dp1969
g4
I00
sg5
Nsg8
Nsg9
I0
sg10
g1967
sbsVRHI
p1970
(isrc.baseline_system.data.Page
Page
p1971
(dp1972
g4
I00
sg5
Nsg8
Nsg9
I4199221
sg10
g1970
sbsVPatrizia C. McBride
p1973
(isrc.baseline_system.data.Page
Page
p1974
(dp1975
g4
I00
sg5
Nsg8
Nsg9
I0
sg10
g1973
sbsVbroader product offering
p1976
(isrc.baseline_system.data.Page
Page
p1977
(dp1978
g4
I00
sg5
Nsg8
Nsg9
I0
sg10
g1976
sbsVSPDR S&P Homebuilders
p1979
(isrc.baseline_system.data.Page
Page
p1980
(dp1981
g4
I00
sg5
Nsg8
Nsg9
I0
sg10
g1979
sbsVQueue Management Device
p1982
(isrc.baseline_system.data.Page
Page
p1983
(dp1984
g4
I00
sg5
Nsg8
Nsg9
I0
sg10
g1982
sbsVNatural Language Processing
p1985
(isrc.baseline_system.data.Page
Page
p1986
(dp1987
g4
I01
sg5
Nsg8
(isrc.baseline_system.data.Page
Page
p1988
(dp1989
g4
I00
sg5
(lp1990
VNLP
p1991
asg8
Nsg9
I21652
sg10
VNatural-language processing
p1992
sbsg9
I39777
sg10
g1985
sbsVKnow your customer
p1993
(isrc.baseline_system.data.Page
Page
p1994
(dp1995
g4
I00
sg5
Nsg8
Nsg9
I2000600
sg10
g1993
sbsVpublic cloud infrastructure
p1996
(isrc.baseline_system.data.Page
Page
p1997
(dp1998
g4
I00
sg5
Nsg8
Nsg9
I0
sg10
g1996
sbsVProtected health information
p1999
(isrc.baseline_system.data.Page
Page
p2000
(dp2001
g4
I00
sg5
(lp2002
VPHI
p2003
asg8
Nsg9
I11091040
sg10
g1999
sbsVRTB
p2004
(isrc.baseline_system.data.Page
Page
p2005
(dp2006
g4
I00
sg5
Nsg8
Nsg9
I2509471
sg10
g2004
sbsVneural machine translation
p2007
(isrc.baseline_system.data.Page
Page
p2008
(dp2009
g4
I00
sg5
(lp2010
VNMT
p2011
asg8
Nsg9
I47961606
sg10
g2007
sbsVRTK
p2012
(isrc.baseline_system.data.Page
Page
p2013
(dp2014
g4
I00
sg5
Nsg8
Nsg9
I1839412
sg10
g2012
sbsVSenior Vice President
p2015
(isrc.baseline_system.data.Page
Page
p2016
(dp2017
g4
I01
sg5
Nsg8
(isrc.baseline_system.data.Page
Page
p2018
(dp2019
g4
I00
sg5
(lp2020
Vvice-president
p2021
aVdirector
p2022
asg8
Nsg9
I52113
sg10
VVice president
p2023
sbsg9
I6368278
sg10
g2015
sbsVLHA (file format)
p2024
(isrc.baseline_system.data.Page
Page
p2025
(dp2026
g4
I00
sg5
(lp2027
V.lzh
p2028
aV.lha
p2029
asg8
Nsg9
I915695
sg10
g2024
sbsVEntire Pharmaceutical Industry
p2030
(isrc.baseline_system.data.Page
Page
p2031
(dp2032
g4
I00
sg5
Nsg8
Nsg9
I0
sg10
g2030
sbsVReal Estate Purchases
p2033
(isrc.baseline_system.data.Page
Page
p2034
(dp2035
g4
I00
sg5
Nsg8
Nsg9
I0
sg10
g2033
sbsVFirstWave Cloud Technology
p2036
(isrc.baseline_system.data.Page
Page
p2037
(dp2038
g4
I00
sg5
Nsg8
Nsg9
I0
sg10
g2036
sbsVMobile-Device-Management
p2039
(isrc.baseline_system.data.Page
Page
p2040
(dp2041
g4
I00
sg5
Nsg8
Nsg9
I0
sg10
g2039
sbsVGoogle algorithmic shiftscanbe
p2042
(isrc.baseline_system.data.Page
Page
p2043
(dp2044
g4
I00
sg5
Nsg8
Nsg9
I0
sg10
g2042
sbsVcommerce applications
p2045
(isrc.baseline_system.data.Page
Page
p2046
(dp2047
g4
I00
sg5
Nsg8
Nsg9
I0
sg10
g2045
sbsVAzure Cloud Service
p2048
(isrc.baseline_system.data.Page
Page
p2049
(dp2050
g4
I00
sg5
Nsg8
Nsg9
I0
sg10
g2048
sbsVSecurity
p2051
(isrc.baseline_system.data.Page
Page
p2052
(dp2053
g4
I00
sg5
Nsg8
Nsg9
I41684
sg10
g2051
sbsVTensor processing unit
p2054
(isrc.baseline_system.data.Page
Page
p2055
(dp2056
g4
I00
sg5
(lp2057
VTPU
p2058
asg8
Nsg9
I50673241
sg10
g2054
sbsVwireless local loop
p2059
(isrc.baseline_system.data.Page
Page
p2060
(dp2061
g4
I00
sg5
Nsg8
Nsg9
I273988
sg10
g2059
sbsVCZI
p2062
(isrc.baseline_system.data.Page
Page
p2063
(dp2064
g4
I00
sg5
Nsg8
Nsg9
I55447789
sg10
g2062
sbsVsupport vector machines
p2065
(isrc.baseline_system.data.Page
Page
p2066
(dp2067
g4
I01
sg5
Nsg8
(isrc.baseline_system.data.Page
Page
p2068
(dp2069
g4
I00
sg5
(lp2070
Vsupport vector machine
p2071
aVSVM
p2072
asg8
Nsg9
I65309
sg10
VSupport vector machine
p2073
sbsg9
I1048288
sg10
g2065
sbsVCustomer Support Service
p2074
(isrc.baseline_system.data.Page
Page
p2075
(dp2076
g4
I00
sg5
Nsg8
Nsg9
I0
sg10
g2074
sbsVErnst Strngmann Institute
p2077
(isrc.baseline_system.data.Page
Page
p2078
(dp2079
g4
I00
sg5
Nsg8
Nsg9
I0
sg10
g2077
sbsVSquare Kilometre Array
p2080
(isrc.baseline_system.data.Page
Page
p2081
(dp2082
g4
I00
sg5
(lp2083
VSKA
p2084
aVSquare Kilometer Array
p2085
asg8
Nsg9
I792246
sg10
g2080
sbsVApplied Cognitive Engine
p2086
(isrc.baseline_system.data.Page
Page
p2087
(dp2088
g4
I00
sg5
Nsg8
Nsg9
I0
sg10
g2086
sbsVInteractive voice response
p2089
(isrc.baseline_system.data.Page
Page
p2090
(dp2091
g4
I00
sg5
(lp2092
VInteractive Voice Response
p2093
asg8
Nsg9
I162186
sg10
g2089
sbsVATA
p2094
(isrc.baseline_system.data.Page
Page
p2095
(dp2096
g4
I00
sg5
Nsg8
Nsg9
I55552
sg10
g2094
sbsVISS
p2097
(isrc.baseline_system.data.Page
Page
p2098
(dp2099
g4
I01
sg5
Nsg8
(isrc.baseline_system.data.Page
Page
p2100
(dp2101
g4
I00
sg5
(lp2102
VISS
p2103
aVNA1SS
p2104
aVStation Alpha
p2105
asg8
Nsg9
I15043
sg10
VInternational Space Station
p2106
sbsg9
I7211567
sg10
g2097
sbsVISP
p2107
(isrc.baseline_system.data.Page
Page
p2108
(dp2109
g4
I01
sg5
Nsg8
g1334
sg9
I5209259
sg10
g2107
sbsVenterprise data sources
p2110
(isrc.baseline_system.data.Page
Page
p2111
(dp2112
g4
I00
sg5
Nsg8
Nsg9
I0
sg10
g2110
sbsVAnti-Counterfeiting Trade Agreement
p2113
(isrc.baseline_system.data.Page
Page
p2114
(dp2115
g4
I00
sg5
(lp2116
VACTA
p2117
asg8
Nsg9
I18589346
sg10
g2113
sbsVAdvance AI Artificial intelligence
p2118
(isrc.baseline_system.data.Page
Page
p2119
(dp2120
g4
I00
sg5
Nsg8
Nsg9
I0
sg10
g2118
sbsVMaybank Ib Research
p2121
(isrc.baseline_system.data.Page
Page
p2122
(dp2123
g4
I00
sg5
Nsg8
Nsg9
I0
sg10
g2121
sbsVISD
p2124
(isrc.baseline_system.data.Page
Page
p2125
(dp2126
g4
I00
sg5
Nsg8
Nsg9
I1332923
sg10
g2124
sbsVMedical Insurance Companies
p2127
(isrc.baseline_system.data.Page
Page
p2128
(dp2129
g4
I00
sg5
Nsg8
Nsg9
I0
sg10
g2127
sbsVRochester Human-Computer Interaction
p2130
(isrc.baseline_system.data.Page
Page
p2131
(dp2132
g4
I00
sg5
Nsg8
Nsg9
I0
sg10
g2130
sbsVgeneral strong AI
p2133
(isrc.baseline_system.data.Page
Page
p2134
(dp2135
g4
I00
sg5
Nsg8
Nsg9
I0
sg10
g2133
sbsVSEF
p2136
(isrc.baseline_system.data.Page
Page
p2137
(dp2138
g4
I00
sg5
Nsg8
Nsg9
I4136345
sg10
g2136
sbsVTensor Processing Units
p2139
(isrc.baseline_system.data.Page
Page
p2140
(dp2141
g4
I00
sg5
Nsg8
Nsg9
I0
sg10
g2139
sbsVSEC
p2142
(isrc.baseline_system.data.Page
Page
p2143
(dp2144
g4
I00
sg5
Nsg8
Nsg9
I390925
sg10
g2142
sbsVAlbeit Not Undervalued
p2145
(isrc.baseline_system.data.Page
Page
p2146
(dp2147
g4
I00
sg5
Nsg8
Nsg9
I0
sg10
g2145
sbsVCloud Application Platforms
p2148
(isrc.baseline_system.data.Page
Page
p2149
(dp2150
g4
I00
sg5
Nsg8
Nsg9
I0
sg10
g2148
sbsVCountry General Manager
p2151
(isrc.baseline_system.data.Page
Page
p2152
(dp2153
g4
I00
sg5
Nsg8
Nsg9
I0
sg10
g2151
sbsVIMS
p2154
(isrc.baseline_system.data.Page
Page
p2155
(dp2156
g4
I00
sg5
Nsg8
Nsg9
I1631287
sg10
g2154
sbsVautomated business incident
p2157
(isrc.baseline_system.data.Page
Page
p2158
(dp2159
g4
I00
sg5
Nsg8
Nsg9
I0
sg10
g2157
sbsVUC San Diego
p2160
(isrc.baseline_system.data.Page
Page
p2161
(dp2162
g4
I01
sg5
Nsg8
(isrc.baseline_system.data.Page
Page
p2163
(dp2164
g4
I00
sg5
(lp2165
VUCSD
p2166
aVUC San Diego
p2167
asg8
Nsg9
I31927
sg10
VUniversity of California, San Diego
p2168
sbsg9
I2295984
sg10
g2160
sbsVHome Cook Iteration
p2169
(isrc.baseline_system.data.Page
Page
p2170
(dp2171
g4
I00
sg5
Nsg8
Nsg9
I0
sg10
g2169
sbsVAdvanced persistent threats
p2172
(isrc.baseline_system.data.Page
Page
p2173
(dp2174
g4
I01
sg5
Nsg8
(isrc.baseline_system.data.Page
Page
p2175
(dp2176
g4
I00
sg5
(lp2177
VAPT
p2178
asg8
Nsg9
I25874360
sg10
VAdvanced persistent threat
p2179
sbsg9
I43111025
sg10
g2172
sbsVConvolutional neural network
p2180
(isrc.baseline_system.data.Page
Page
p2181
(dp2182
g4
I00
sg5
(lp2183
VCNN
p2184
aVConvNet
p2185
aVConvolutional Nets
p2186
aVConvolutional Networks
p2187
aVConvolutional Network
p2188
aVConvolutional Neural Networks
p2189
aVConvolution Neural Network
p2190
asg8
Nsg9
I40409788
sg10
g2180
sbsVdata-driven healthcare applications
p2191
(isrc.baseline_system.data.Page
Page
p2192
(dp2193
g4
I00
sg5
Nsg8
Nsg9
I0
sg10
g2191
sbsVcampaign management platform
p2194
(isrc.baseline_system.data.Page
Page
p2195
(dp2196
g4
I00
sg5
Nsg8
Nsg9
I0
sg10
g2194
sbsVBPA
p2197
(isrc.baseline_system.data.Page
Page
p2198
(dp2199
g4
I00
sg5
Nsg8
Nsg9
I1885052
sg10
g2197
sbsVMobile device management
p2200
(isrc.baseline_system.data.Page
Page
p2201
(dp2202
g4
I00
sg5
Nsg8
Nsg9
I12550185
sg10
g2200
sbsVAdvanced Machine Learning
p2203
(isrc.baseline_system.data.Page
Page
p2204
(dp2205
g4
I00
sg5
Nsg8
Nsg9
I0
sg10
g2203
sbsVAmerican Diabetes Association
p2206
(isrc.baseline_system.data.Page
Page
p2207
(dp2208
g4
I00
sg5
(lp2209
VADA
p2210
asg8
Nsg9
I2168708
sg10
g2206
sbsVtop Oracle customers
p2211
(isrc.baseline_system.data.Page
Page
p2212
(dp2213
g4
I00
sg5
Nsg8
Nsg9
I0
sg10
g2211
sbsVBPO
p2214
(isrc.baseline_system.data.Page
Page
p2215
(dp2216
g4
I00
sg5
Nsg8
Nsg9
I532200
sg10
g2214
sbsVEnterprise Content Management
p2217
(isrc.baseline_system.data.Page
Page
p2218
(dp2219
g4
I01
sg5
Nsg8
(isrc.baseline_system.data.Page
Page
p2220
(dp2221
g4
I00
sg5
Nsg8
Nsg9
I1644982
sg10
VEnterprise content management
p2222
sbsg9
I2869616
sg10
g2217
sbsVBPR
p2223
(isrc.baseline_system.data.Page
Page
p2224
(dp2225
g4
I00
sg5
Nsg8
Nsg9
I1422553
sg10
g2223
sbsVSensorias smart garments
p2226
(isrc.baseline_system.data.Page
Page
p2227
(dp2228
g4
I00
sg5
Nsg8
Nsg9
I0
sg10
g2226
sbsVTGS
p2229
(isrc.baseline_system.data.Page
Page
p2230
(dp2231
g4
I00
sg5
Nsg8
Nsg9
I2694660
sg10
g2229
sbsVPost Migration Remediation
p2232
(isrc.baseline_system.data.Page
Page
p2233
(dp2234
g4
I00
sg5
Nsg8
Nsg9
I0
sg10
g2232
sbsVAllo Messaging App
p2235
(isrc.baseline_system.data.Page
Page
p2236
(dp2237
g4
I00
sg5
Nsg8
Nsg9
I0
sg10
g2235
sbsVAgile Software development
p2238
(isrc.baseline_system.data.Page
Page
p2239
(dp2240
g4
I00
sg5
Nsg8
Nsg9
I0
sg10
g2238
sbsVMLB
p2241
(isrc.baseline_system.data.Page
Page
p2242
(dp2243
g4
I01
sg5
Nsg8
g1292
sg9
I154507
sg10
g2241
sbsVDependable Vehicular Communications
p2244
(isrc.baseline_system.data.Page
Page
p2245
(dp2246
g4
I00
sg5
Nsg8
Nsg9
I0
sg10
g2244
sbsVHospital-acquired infection
p2247
(isrc.baseline_system.data.Page
Page
p2248
(dp2249
g4
I00
sg5
(lp2250
Vnosocomial infection
p2251
aVnosocomial infections
p2252
asg8
Nsg9
I875883
sg10
g2247
sbsVDHA
p2253
(isrc.baseline_system.data.Page
Page
p2254
(dp2255
g4
I00
sg5
Nsg8
Nsg9
I1606855
sg10
g2253
sbsVConsumer Intelligence Research Partners
p2256
(isrc.baseline_system.data.Page
Page
p2257
(dp2258
g4
I00
sg5
Nsg8
Nsg9
I0
sg10
g2256
sbsVSecurity Management Systems
p2259
(isrc.baseline_system.data.Page
Page
p2260
(dp2261
g4
I00
sg5
Nsg8
Nsg9
I0
sg10
g2259
sbsVCritical Intellectual Property
p2262
(isrc.baseline_system.data.Page
Page
p2263
(dp2264
g4
I00
sg5
Nsg8
Nsg9
I0
sg10
g2262
sbsVNRL
p2265
(isrc.baseline_system.data.Page
Page
p2266
(dp2267
g4
I01
sg5
Nsg8
(isrc.baseline_system.data.Page
Page
p2268
(dp2269
g4
I00
sg5
Nsg8
Nsg9
I255709
sg10
VNational Rugby League
p2270
sbsg9
I13747107
sg10
g2265
sbsVdata science toolkit
p2271
(isrc.baseline_system.data.Page
Page
p2272
(dp2273
g4
I00
sg5
Nsg8
Nsg9
I0
sg10
g2271
sbsVNRF
p2274
(isrc.baseline_system.data.Page
Page
p2275
(dp2276
g4
I00
sg5
Nsg8
Nsg9
I1855171
sg10
g2274
sbsVHewlett-Packard Enterprise
p2277
(isrc.baseline_system.data.Page
Page
p2278
(dp2279
g4
I01
sg5
Nsg8
(isrc.baseline_system.data.Page
Page
p2280
(dp2281
g4
I00
sg5
(lp2282
VHewlett Packard Enterprise Co.
p2283
aVHP Enterprise
p2284
asg8
Nsg9
I44929752
sg10
VHewlett Packard Enterprise
p2285
sbsg9
I44925177
sg10
g2277
sbsVtransaction processing software
p2286
(isrc.baseline_system.data.Page
Page
p2287
(dp2288
g4
I00
sg5
Nsg8
Nsg9
I0
sg10
g2286
sbsVnatural human language
p2289
(isrc.baseline_system.data.Page
Page
p2290
(dp2291
g4
I00
sg5
Nsg8
Nsg9
I0
sg10
g2289
sbsVAMDs
p2292
(isrc.baseline_system.data.Page
Page
p2293
(dp2294
g4
I00
sg5
Nsg8
Nsg9
I0
sg10
g2292
sbsVImpartial Peer Review
p2295
(isrc.baseline_system.data.Page
Page
p2296
(dp2297
g4
I00
sg5
Nsg8
Nsg9
I0
sg10
g2295
sbsVAge Dependency Ratio
p2298
(isrc.baseline_system.data.Page
Page
p2299
(dp2300
g4
I01
sg5
Nsg8
(isrc.baseline_system.data.Page
Page
p2301
(dp2302
g4
I00
sg5
Nsg8
Nsg9
I591931
sg10
VDependency ratio
p2303
sbsg9
I22338274
sg10
g2298
sbsVComments
p2304
(isrc.baseline_system.data.Page
Page
p2305
(dp2306
g4
I01
sg5
Nsg8
(isrc.baseline_system.data.Page
Page
p2307
(dp2308
g4
I00
sg5
Nsg8
Nsg9
I7969873
sg10
VComment
p2309
sbsg9
I243314
sg10
g2304
sbsVentire IT stack
p2310
(isrc.baseline_system.data.Page
Page
p2311
(dp2312
g4
I00
sg5
Nsg8
Nsg9
I0
sg10
g2310
sbsVVirtual Private Network
p2313
(isrc.baseline_system.data.Page
Page
p2314
(dp2315
g4
I01
sg5
Nsg8
(isrc.baseline_system.data.Page
Page
p2316
(dp2317
g4
I00
sg5
(lp2318
VVPN
p2319
asg8
Nsg9
I147130
sg10
VVirtual private network
p2320
sbsg9
I4520225
sg10
g2313
sbsVItsarm-Based Soc Designs
p2321
(isrc.baseline_system.data.Page
Page
p2322
(dp2323
g4
I00
sg5
Nsg8
Nsg9
I0
sg10
g2321
sbsVliquefied natural gas
p2324
(isrc.baseline_system.data.Page
Page
p2325
(dp2326
g4
I00
sg5
(lp2327
VLNG
p2328
asg8
Nsg9
I832128
sg10
g2324
sbsVAllen Telescope Array
p2329
(isrc.baseline_system.data.Page
Page
p2330
(dp2331
g4
I00
sg5
(lp2332
VATA
p2333
asg8
Nsg9
I1966411
sg10
g2329
sbsVPreventive Cybersecurity Solution
p2334
(isrc.baseline_system.data.Page
Page
p2335
(dp2336
g4
I00
sg5
Nsg8
Nsg9
I0
sg10
g2334
sbsVDigital Investment Platform
p2337
(isrc.baseline_system.data.Page
Page
p2338
(dp2339
g4
I00
sg5
Nsg8
Nsg9
I0
sg10
g2337
sbsVProductivity Cost Savings
p2340
(isrc.baseline_system.data.Page
Page
p2341
(dp2342
g4
I00
sg5
Nsg8
Nsg9
I0
sg10
g2340
sbsVHAI
p2343
(isrc.baseline_system.data.Page
Page
p2344
(dp2345
g4
I00
sg5
Nsg8
Nsg9
I2770423
sg10
g2343
sbsVCloud-based software services
p2346
(isrc.baseline_system.data.Page
Page
p2347
(dp2348
g4
I00
sg5
Nsg8
Nsg9
I0
sg10
g2346
sbsVintelligent virtual assistants
p2349
(isrc.baseline_system.data.Page
Page
p2350
(dp2351
g4
I00
sg5
Nsg8
Nsg9
I0
sg10
g2349
sbsVAccelerated Processing Unit
p2352
(isrc.baseline_system.data.Page
Page
p2353
(dp2354
g4
I01
sg5
Nsg8
(isrc.baseline_system.data.Page
Page
p2355
(dp2356
g4
I00
sg5
(lp2357
VOntario (processor)
p2358
aVZacate
p2359
aVAMD E350
p2360
aVAmd e300
p2361
aVAmd trinity
p2362
aVAMD E450
p2363
aVAMD Trinity
p2364
aVAMD A10
p2365
aVAMD Fusion
p2366
aVAccelerated Processing Unit
p2367
aVAPU
p2368
asg8
Nsg9
I7612361
sg10
VAMD Accelerated Processing Unit
p2369
sbsg9
I30342280
sg10
g2352
sbsVIntelligent Iot Service
p2370
(isrc.baseline_system.data.Page
Page
p2371
(dp2372
g4
I00
sg5
Nsg8
Nsg9
I0
sg10
g2370
sbsg1121
g1119
sVNicer Robotics Laboratory
p2373
(isrc.baseline_system.data.Page
Page
p2374
(dp2375
g4
I00
sg5
Nsg8
Nsg9
I0
sg10
g2373
sbsVNational Australia Bank
p2376
(isrc.baseline_system.data.Page
Page
p2377
(dp2378
g4
I00
sg5
(lp2379
VNAB
p2380
aVnab
p2381
aVNational Australia Bank Limited
p2382
asg8
Nsg9
I550790
sg10
g2376
sbsVVice President Sales
p2383
(isrc.baseline_system.data.Page
Page
p2384
(dp2385
g4
I00
sg5
Nsg8
Nsg9
I0
sg10
g2383
sbsVEMA
p2386
(isrc.baseline_system.data.Page
Page
p2387
(dp2388
g4
I00
sg5
Nsg8
Nsg9
I2093968
sg10
g2386
sbsVRed Hat Enterprise Linux
p2389
(isrc.baseline_system.data.Page
Page
p2390
(dp2391
g4
I00
sg5
(lp2392
VRHEL
p2393
asg8
Nsg9
I556778
sg10
g2389
sbsVseas
p2394
(isrc.baseline_system.data.Page
Page
p2395
(dp2396
g4
I01
sg5
Nsg8
(isrc.baseline_system.data.Page
Page
p2397
(dp2398
g4
I00
sg5
Nsg8
Nsg9
I1780609
sg10
VList of seas
p2399
sbsg9
I41702540
sg10
g2394
sbsVplenty computer scientists
p2400
(isrc.baseline_system.data.Page
Page
p2401
(dp2402
g4
I00
sg5
Nsg8
Nsg9
I0
sg10
g2400
sbsVdigital one stop ecosystem
p2403
(isrc.baseline_system.data.Page
Page
p2404
(dp2405
g4
I00
sg5
Nsg8
Nsg9
I0
sg10
g2403
sbsVCloud Industry Partners
p2406
(isrc.baseline_system.data.Page
Page
p2407
(dp2408
g4
I00
sg5
Nsg8
Nsg9
I0
sg10
g2406
sbsVEMS
p2409
(isrc.baseline_system.data.Page
Page
p2410
(dp2411
g4
I00
sg5
Nsg8
Nsg9
I286810
sg10
g2409
sbsg376
g371
sVartificial general intelligence
p2412
(isrc.baseline_system.data.Page
Page
p2413
(dp2414
g4
I00
sg5
(lp2415
Vgeneral artificial intelligence
p2416
aVfull AI
p2417
aVstrong artificial intelligence
p2418
aVstrong AI
p2419
aVStrong AI and Weak AI
p2420
asg8
Nsg9
I586357
sg10
g2412
sbsVAustralias Future Prosperity
p2421
(isrc.baseline_system.data.Page
Page
p2422
(dp2423
g4
I00
sg5
Nsg8
Nsg9
I0
sg10
g2421
sbsVGraphics processing unit
p2424
(isrc.baseline_system.data.Page
Page
p2425
(dp2426
g4
I00
sg5
(lp2427
VGPU
p2428
aVvisual processing unit
p2429
aVVPU
p2430
aVgraphics accelerator
p2431
aVGraphic Processing Unit
p2432
aVVideo Processing Unit
p2433
asg8
Nsg9
I390214
sg10
g2424
sbsVAi Alliance  Artificial Intelligence
p2434
(isrc.baseline_system.data.Page
Page
p2435
(dp2436
g4
I00
sg5
Nsg8
Nsg9
I0
sg10
g2434
sbsVNetwork Function Virtualization
p2437
(isrc.baseline_system.data.Page
Page
p2438
(dp2439
g4
I01
sg5
Nsg8
(isrc.baseline_system.data.Page
Page
p2440
(dp2441
g4
I00
sg5
Nsg8
Nsg9
I38556048
sg10
VNetwork function virtualization
p2442
sbsg9
I38558175
sg10
g2437
sbsVInitial Public Offering
p2443
(isrc.baseline_system.data.Page
Page
p2444
(dp2445
g4
I01
sg5
Nsg8
(isrc.baseline_system.data.Page
Page
p2446
(dp2447
g4
I00
sg5
(lp2448
VIPO
p2449
asg8
Nsg9
I63879
sg10
VInitial public offering
p2450
sbsg9
I214803
sg10
g2443
sbsVAir Force Acquisitions
p2451
(isrc.baseline_system.data.Page
Page
p2452
(dp2453
g4
I00
sg5
Nsg8
Nsg9
I0
sg10
g2451
sbsVWall Street Journa
p2454
(isrc.baseline_system.data.Page
Page
p2455
(dp2456
g4
I00
sg5
Nsg8
Nsg9
I0
sg10
g2454
sbsVData Center Growth
p2457
(isrc.baseline_system.data.Page
Page
p2458
(dp2459
g4
I00
sg5
Nsg8
Nsg9
I0
sg10
g2457
sbsVAzure cloud-based services
p2460
(isrc.baseline_system.data.Page
Page
p2461
(dp2462
g4
I00
sg5
Nsg8
Nsg9
I0
sg10
g2460
sbsVEnterprise Data Management Council
p2463
(isrc.baseline_system.data.Page
Page
p2464
(dp2465
g4
I00
sg5
Nsg8
Nsg9
I0
sg10
g2463
sbsVhospital acquired infections
p2466
(isrc.baseline_system.data.Page
Page
p2467
(dp2468
g4
I01
sg5
Nsg8
g2248
sg9
I42339406
sg10
g2466
sbsVcloud-based software solutions
p2469
(isrc.baseline_system.data.Page
Page
p2470
(dp2471
g4
I00
sg5
Nsg8
Nsg9
I0
sg10
g2469
sbsVNational Computational Infrastructure
p2472
(isrc.baseline_system.data.Page
Page
p2473
(dp2474
g4
I00
sg5
Nsg8
Nsg9
I0
sg10
g2472
sbsVRichard D. Shiels
p2475
(isrc.baseline_system.data.Page
Page
p2476
(dp2477
g4
I00
sg5
Nsg8
Nsg9
I0
sg10
g2475
sbsVAnita Borg Institute
p2478
(isrc.baseline_system.data.Page
Page
p2479
(dp2480
g4
I01
sg5
Nsg8
g1481
sg9
I55577148
sg10
g2478
sbsVCOO
p2481
(isrc.baseline_system.data.Page
Page
p2482
(dp2483
g4
I00
sg5
Nsg8
Nsg9
I427098
sg10
g2481
sbsVAnthropomorphic Digital Assistants
p2484
(isrc.baseline_system.data.Page
Page
p2485
(dp2486
g4
I00
sg5
Nsg8
Nsg9
I0
sg10
g2484
sbsVInternet Service Providers
p2487
(isrc.baseline_system.data.Page
Page
p2488
(dp2489
g4
I01
sg5
Nsg8
(isrc.baseline_system.data.Page
Page
p2490
(dp2491
g4
I00
sg5
(lp2492
VISP
p2493
asg8
Nsg9
I100245
sg10
VInternet service provider
p2494
sbsg9
I312818
sg10
g2487
sbsVAdvanced Visual Effects
p2495
(isrc.baseline_system.data.Page
Page
p2496
(dp2497
g4
I00
sg5
Nsg8
Nsg9
I0
sg10
g2495
sbsVrobotics process automation
p2498
(isrc.baseline_system.data.Page
Page
p2499
(dp2500
g4
I00
sg5
Nsg8
Nsg9
I0
sg10
g2498
sbsVcross sectional study
p2501
(isrc.baseline_system.data.Page
Page
p2502
(dp2503
g4
I01
sg5
Nsg8
g1677
sg9
I4198427
sg10
g2501
sbsVTay Chatbot Returns
p2504
(isrc.baseline_system.data.Page
Page
p2505
(dp2506
g4
I00
sg5
Nsg8
Nsg9
I0
sg10
g2504
sbsVCloud Data Warehouses
p2507
(isrc.baseline_system.data.Page
Page
p2508
(dp2509
g4
I00
sg5
Nsg8
Nsg9
I0
sg10
g2507
sbsVscalable data structures
p2510
(isrc.baseline_system.data.Page
Page
p2511
(dp2512
g4
I00
sg5
Nsg8
Nsg9
I0
sg10
g2510
sbsVChief Commercial Officer
p2513
(isrc.baseline_system.data.Page
Page
p2514
(dp2515
g4
I01
sg5
Nsg8
(isrc.baseline_system.data.Page
Page
p2516
(dp2517
g4
I00
sg5
Nsg8
Nsg9
I27907548
sg10
VChief commercial officer
p2518
sbsg9
I34288170
sg10
g2513
sbsVCloud Product Suite
p2519
(isrc.baseline_system.data.Page
Page
p2520
(dp2521
g4
I00
sg5
Nsg8
Nsg9
I0
sg10
g2519
sbsVInitial public offering
p2522
(isrc.baseline_system.data.Page
Page
p2523
(dp2524
g4
I00
sg5
(lp2525
VIPO
p2526
asg8
Nsg9
I63879
sg10
g2522
sbsg86
g81
sVEmbedded Hardware
p2527
(isrc.baseline_system.data.Page
Page
p2528
(dp2529
g4
I00
sg5
Nsg8
Nsg9
I0
sg10
g2527
sbsVAustralias future prosperity
p2530
(isrc.baseline_system.data.Page
Page
p2531
(dp2532
g4
I00
sg5
Nsg8
Nsg9
I0
sg10
g2530
sbsVSoftware Download Store
p2533
(isrc.baseline_system.data.Page
Page
p2534
(dp2535
g4
I00
sg5
Nsg8
Nsg9
I0
sg10
g2533
sbsVcloud system infrastructure services
p2536
(isrc.baseline_system.data.Page
Page
p2537
(dp2538
g4
I00
sg5
Nsg8
Nsg9
I0
sg10
g2536
sbsVReps
p2539
(isrc.baseline_system.data.Page
Page
p2540
(dp2541
g4
I00
sg5
Nsg8
Nsg9
I14472258
sg10
g2539
sbsg1872
g1868
sVCognitive Fingerprinting Delivers
p2542
(isrc.baseline_system.data.Page
Page
p2543
(dp2544
g4
I00
sg5
Nsg8
Nsg9
I0
sg10
g2542
sbsVMachine learning benchmarks
p2545
(isrc.baseline_system.data.Page
Page
p2546
(dp2547
g4
I00
sg5
Nsg8
Nsg9
I0
sg10
g2545
sbsVAchieving Machine Intelligence
p2548
(isrc.baseline_system.data.Page
Page
p2549
(dp2550
g4
I00
sg5
Nsg8
Nsg9
I0
sg10
g2548
sbsVNSS
p2551
(isrc.baseline_system.data.Page
Page
p2552
(dp2553
g4
I00
sg5
Nsg8
Nsg9
I317306
sg10
g2551
sbsVIbm Enterprise Analytics
p2554
(isrc.baseline_system.data.Page
Page
p2555
(dp2556
g4
I00
sg5
Nsg8
Nsg9
I0
sg10
g2554
sbsVbusiness development support
p2557
(isrc.baseline_system.data.Page
Page
p2558
(dp2559
g4
I00
sg5
Nsg8
Nsg9
I0
sg10
g2557
sbsVUTP
p2560
(isrc.baseline_system.data.Page
Page
p2561
(dp2562
g4
I00
sg5
Nsg8
Nsg9
I86658
sg10
g2560
sbsVcards fraud detection
p2563
(isrc.baseline_system.data.Page
Page
p2564
(dp2565
g4
I00
sg5
Nsg8
Nsg9
I0
sg10
g2563
sbsVAgile software development
p2566
(isrc.baseline_system.data.Page
Page
p2567
(dp2568
g4
I00
sg5
(lp2569
VAgile Development
p2570
asg8
Nsg9
I639009
sg10
g2566
sbsVGeographic information system
p2571
(isrc.baseline_system.data.Page
Page
p2572
(dp2573
g4
I00
sg5
(lp2574
VGIS
p2575
asg8
Nsg9
I12398
sg10
g2571
sbsVStanford Research Institute
p2576
(isrc.baseline_system.data.Page
Page
p2577
(dp2578
g4
I01
sg5
Nsg8
(isrc.baseline_system.data.Page
Page
p2579
(dp2580
g4
I00
sg5
(lp2581
VStanford Research Institute
p2582
aVSRI
p2583
asg8
Nsg9
I481262
sg10
VSRI International
p2584
sbsg9
I352091
sg10
g2576
sbsVSDS
p2585
(isrc.baseline_system.data.Page
Page
p2586
(dp2587
g4
I00
sg5
Nsg8
Nsg9
I18491092
sg10
g2585
sbsVComplex Data Sets
p2588
(isrc.baseline_system.data.Page
Page
p2589
(dp2590
g4
I00
sg5
Nsg8
Nsg9
I0
sg10
g2588
sbsVSpire Sheds Light
p2591
(isrc.baseline_system.data.Page
Page
p2592
(dp2593
g4
I00
sg5
Nsg8
Nsg9
I0
sg10
g2591
sbsVccd
p2594
(isrc.baseline_system.data.Page
Page
p2595
(dp2596
g4
I01
sg5
Nsg8
(isrc.baseline_system.data.Page
Page
p2597
(dp2598
g4
I00
sg5
Nsg8
Nsg9
I6803
sg10
VCCD
p2599
sbsg9
I1753607
sg10
g2594
sbsVNxp Semiconductor Stock
p2600
(isrc.baseline_system.data.Page
Page
p2601
(dp2602
g4
I00
sg5
Nsg8
Nsg9
I0
sg10
g2600
sbsVNAB
p2603
(isrc.baseline_system.data.Page
Page
p2604
(dp2605
g4
I00
sg5
Nsg8
Nsg9
I272526
sg10
g2603
sbsVautonomous vehicle technologies
p2606
(isrc.baseline_system.data.Page
Page
p2607
(dp2608
g4
I00
sg5
Nsg8
Nsg9
I0
sg10
g2606
sbsVbusiness development centers
p2609
(isrc.baseline_system.data.Page
Page
p2610
(dp2611
g4
I00
sg5
Nsg8
Nsg9
I0
sg10
g2609
sbsVAutomotive Grade Linux
p2612
(isrc.baseline_system.data.Page
Page
p2613
(dp2614
g4
I00
sg5
(lp2615
VAGL
p2616
asg8
Nsg9
I43228047
sg10
g2612
sbsVNAS
p2617
(isrc.baseline_system.data.Page
Page
p2618
(dp2619
g4
I01
sg5
Nsg8
g615
sg9
I291625
sg10
g2617
sbsVEPI
p2620
(isrc.baseline_system.data.Page
Page
p2621
(dp2622
g4
I00
sg5
Nsg8
Nsg9
I930719
sg10
g2620
sbsVMainframe Data Migration
p2623
(isrc.baseline_system.data.Page
Page
p2624
(dp2625
g4
I00
sg5
Nsg8
Nsg9
I0
sg10
g2623
sbsg643
g635
sVmedical research company
p2626
(isrc.baseline_system.data.Page
Page
p2627
(dp2628
g4
I00
sg5
Nsg8
Nsg9
I0
sg10
g2626
sbsVSmart City Models
p2629
(isrc.baseline_system.data.Page
Page
p2630
(dp2631
g4
I00
sg5
Nsg8
Nsg9
I0
sg10
g2629
sbsVIntels chief executive
p2632
(isrc.baseline_system.data.Page
Page
p2633
(dp2634
g4
I00
sg5
Nsg8
Nsg9
I0
sg10
g2632
sbsVIbm Cognitive Solutions
p2635
(isrc.baseline_system.data.Page
Page
p2636
(dp2637
g4
I00
sg5
Nsg8
Nsg9
I0
sg10
g2635
sbsVTokyo Games Show
p2638
(isrc.baseline_system.data.Page
Page
p2639
(dp2640
g4
I01
sg5
Nsg8
(isrc.baseline_system.data.Page
Page
p2641
(dp2642
g4
I00
sg5
(lp2643
VTGS
p2644
asg8
Nsg9
I1021157
sg10
VTokyo Game Show
p2645
sbsg9
I13028660
sg10
g2638
sbsVTotal Addressable Market
p2646
(isrc.baseline_system.data.Page
Page
p2647
(dp2648
g4
I01
sg5
Nsg8
g1854
sg9
I18683831
sg10
g2646
sbsVSolid State Drives
p2649
(isrc.baseline_system.data.Page
Page
p2650
(dp2651
g4
I00
sg5
Nsg8
Nsg9
I0
sg10
g2649
sbsVrelevant health information
p2652
(isrc.baseline_system.data.Page
Page
p2653
(dp2654
g4
I00
sg5
Nsg8
Nsg9
I0
sg10
g2652
sbsVSVP
p2655
(isrc.baseline_system.data.Page
Page
p2656
(dp2657
g4
I00
sg5
Nsg8
Nsg9
I370413
sg10
g2655
sbsVColmobil Auto Agency
p2658
(isrc.baseline_system.data.Page
Page
p2659
(dp2660
g4
I00
sg5
Nsg8
Nsg9
I0
sg10
g2658
sbsVSoil Tension Meters
p2661
(isrc.baseline_system.data.Page
Page
p2662
(dp2663
g4
I00
sg5
Nsg8
Nsg9
I0
sg10
g2661
sbsg173
g169
sVPip
p2664
(isrc.baseline_system.data.Page
Page
p2665
(dp2666
g4
I00
sg5
Nsg8
Nsg9
I700908
sg10
g2664
sbsVholy horror show
p2667
(isrc.baseline_system.data.Page
Page
p2668
(dp2669
g4
I00
sg5
Nsg8
Nsg9
I0
sg10
g2667
sbsVSAFs
p2670
(isrc.baseline_system.data.Page
Page
p2671
(dp2672
g4
I00
sg5
Nsg8
Nsg9
I0
sg10
g2670
sbsVEntertainment
p2673
(isrc.baseline_system.data.Page
Page
p2674
(dp2675
g4
I00
sg5
(lp2676
VEntertainment Film Distributors
p2677
asg8
Nsg9
I9262
sg10
g2673
sbsVpermanent cognitive issues
p2678
(isrc.baseline_system.data.Page
Page
p2679
(dp2680
g4
I00
sg5
Nsg8
Nsg9
I0
sg10
g2678
sbsg959
g955
sVHortonworks Data Platform
p2681
(isrc.baseline_system.data.Page
Page
p2682
(dp2683
g4
I00
sg5
Nsg8
Nsg9
I0
sg10
g2681
sbsVCloud-Based Software Solutions
p2684
(isrc.baseline_system.data.Page
Page
p2685
(dp2686
g4
I00
sg5
Nsg8
Nsg9
I0
sg10
g2684
sbsVESP
p2687
(isrc.baseline_system.data.Page
Page
p2688
(dp2689
g4
I00
sg5
Nsg8
Nsg9
I36651
sg10
g2687
sbsVProof Application Images
p2690
(isrc.baseline_system.data.Page
Page
p2691
(dp2692
g4
I00
sg5
Nsg8
Nsg9
I0
sg10
g2690
sbsVautonomous mobile robotics
p2693
(isrc.baseline_system.data.Page
Page
p2694
(dp2695
g4
I00
sg5
Nsg8
Nsg9
I0
sg10
g2693
sbsVBing Search Technology
p2696
(isrc.baseline_system.data.Page
Page
p2697
(dp2698
g4
I00
sg5
Nsg8
Nsg9
I0
sg10
g2696
sbsVinfrastructure service providers
p2699
(isrc.baseline_system.data.Page
Page
p2700
(dp2701
g4
I00
sg5
Nsg8
Nsg9
I0
sg10
g2699
sbsVTRI
p2702
(isrc.baseline_system.data.Page
Page
p2703
(dp2704
g4
I01
sg5
Nsg8
g1223
sg9
I4937508
sg10
g2702
sbsVMDEC
p2705
(isrc.baseline_system.data.Page
Page
p2706
(dp2707
g4
I01
sg5
Nsg8
(isrc.baseline_system.data.Page
Page
p2708
(dp2709
g4
I00
sg5
Nsg8
Nsg9
I2277197
sg10
VMalaysia Digital Economy Corporation
p2710
sbsg9
I50666346
sg10
g2705
sbsVDigital Stokvel Solution
p2711
(isrc.baseline_system.data.Page
Page
p2712
(dp2713
g4
I00
sg5
Nsg8
Nsg9
I0
sg10
g2711
sbsVDIPS
p2714
(isrc.baseline_system.data.Page
Page
p2715
(dp2716
g4
I00
sg5
Nsg8
Nsg9
I19040988
sg10
g2714
sbsVAPM
p2717
(isrc.baseline_system.data.Page
Page
p2718
(dp2719
g4
I00
sg5
Nsg8
Nsg9
I273699
sg10
g2717
sbsVIBM Cloud tools
p2720
(isrc.baseline_system.data.Page
Page
p2721
(dp2722
g4
I00
sg5
Nsg8
Nsg9
I0
sg10
g2720
sbsVContract For Difference
p2723
(isrc.baseline_system.data.Page
Page
p2724
(dp2725
g4
I01
sg5
Nsg8
(isrc.baseline_system.data.Page
Page
p2726
(dp2727
g4
I00
sg5
(lp2728
VCFD
p2729
asg8
Nsg9
I1317334
sg10
VContract for difference
p2730
sbsg9
I2758736
sg10
g2723
sbsVRelational Database Service
p2731
(isrc.baseline_system.data.Page
Page
p2732
(dp2733
g4
I00
sg5
Nsg8
Nsg9
I0
sg10
g2731
sbsVCloud-Based Software Services
p2734
(isrc.baseline_system.data.Page
Page
p2735
(dp2736
g4
I00
sg5
Nsg8
Nsg9
I0
sg10
g2734
sbsVphone company stocks
p2737
(isrc.baseline_system.data.Page
Page
p2738
(dp2739
g4
I00
sg5
Nsg8
Nsg9
I0
sg10
g2737
sbsVAndroid-Dominated Smartphone Range
p2740
(isrc.baseline_system.data.Page
Page
p2741
(dp2742
g4
I00
sg5
Nsg8
Nsg9
I0
sg10
g2740
sbsVCivil Aviation Authority
p2743
(isrc.baseline_system.data.Page
Page
p2744
(dp2745
g4
I01
sg5
Nsg8
(isrc.baseline_system.data.Page
Page
p2746
(dp2747
g4
I00
sg5
(lp2748
Vnational aviation authority
p2749
aVcivil aviation authority
p2750
asg8
Nsg9
I20778386
sg10
VNational aviation authority
p2751
sbsg9
I20577386
sg10
g2743
sbsVSilicon Valley-Inspired Pod
p2752
(isrc.baseline_system.data.Page
Page
p2753
(dp2754
g4
I00
sg5
Nsg8
Nsg9
I0
sg10
g2752
sbsVaccelerated-ROI offerings
p2755
(isrc.baseline_system.data.Page
Page
p2756
(dp2757
g4
I00
sg5
Nsg8
Nsg9
I0
sg10
g2755
sbsVArtificial general intelligence
p2758
(isrc.baseline_system.data.Page
Page
p2759
(dp2760
g4
I00
sg5
(lp2761
Vgeneral artificial intelligence
p2762
aVfull AI
p2763
aVstrong artificial intelligence
p2764
aVstrong AI
p2765
aVStrong AI and Weak AI
p2766
asg8
Nsg9
I586357
sg10
g2758
sbsVWireless Local Loop
p2767
(isrc.baseline_system.data.Page
Page
p2768
(dp2769
g4
I00
sg5
Nsg8
Nsg9
I0
sg10
g2767
sbsVAni (disambiguation)
p2770
(isrc.baseline_system.data.Page
Page
p2771
(dp2772
g4
I00
sg5
Nsg8
Nsg9
I8925163
sg10
g2770
sbsVPrivate Capital Management
p2773
(isrc.baseline_system.data.Page
Page
p2774
(dp2775
g4
I00
sg5
Nsg8
Nsg9
I0
sg10
g2773
sbsVsoil tension meters
p2776
(isrc.baseline_system.data.Page
Page
p2777
(dp2778
g4
I00
sg5
Nsg8
Nsg9
I0
sg10
g2776
sbsVAllo messaging app
p2779
(isrc.baseline_system.data.Page
Page
p2780
(dp2781
g4
I00
sg5
Nsg8
Nsg9
I0
sg10
g2779
sbsVBing search technology
p2782
(isrc.baseline_system.data.Page
Page
p2783
(dp2784
g4
I00
sg5
Nsg8
Nsg9
I0
sg10
g2782
sbsVmobile device management
p2785
(isrc.baseline_system.data.Page
Page
p2786
(dp2787
g4
I00
sg5
Nsg8
Nsg9
I12550185
sg10
g2785
sbsVPhi (disambiguation)
p2788
(isrc.baseline_system.data.Page
Page
p2789
(dp2790
g4
I00
sg5
Nsg8
Nsg9
I166725
sg10
g2788
sbsVDisparate Operational Tools
p2791
(isrc.baseline_system.data.Page
Page
p2792
(dp2793
g4
I00
sg5
Nsg8
Nsg9
I0
sg10
g2791
sbsVMobile And Searching
p2794
(isrc.baseline_system.data.Page
Page
p2795
(dp2796
g4
I00
sg5
Nsg8
Nsg9
I0
sg10
g2794
sbsVmanaged service providers
p2797
(isrc.baseline_system.data.Page
Page
p2798
(dp2799
g4
I00
sg5
Nsg8
Nsg9
I0
sg10
g2797
sbsVinitial public offering
p2800
(isrc.baseline_system.data.Page
Page
p2801
(dp2802
g4
I00
sg5
(lp2803
VIPO
p2804
asg8
Nsg9
I63879
sg10
g2800
sbsVRDS
p2805
(isrc.baseline_system.data.Page
Page
p2806
(dp2807
g4
I00
sg5
Nsg8
Nsg9
I225116
sg10
g2805
sbsVElectronic Medical Records
p2808
(isrc.baseline_system.data.Page
Page
p2809
(dp2810
g4
I01
sg5
Nsg8
(isrc.baseline_system.data.Page
Page
p2811
(dp2812
g4
I00
sg5
(lp2813
VEHR
p2814
aVelectronic medical record
p2815
aVEMR
p2816
asg8
Nsg9
I1129641
sg10
VElectronic health record
p2817
sbsg9
I930784
sg10
g2808
sbsVmics
p2818
(isrc.baseline_system.data.Page
Page
p2819
(dp2820
g4
I00
sg5
Nsg8
Nsg9
I0
sg10
g2818
sbsg2399
g2397
sVAustralian Hotels Association
p2821
(isrc.baseline_system.data.Page
Page
p2822
(dp2823
g4
I00
sg5
Nsg8
Nsg9
I12899056
sg10
g2821
sbsVdual SIM tray
p2824
(isrc.baseline_system.data.Page
Page
p2825
(dp2826
g4
I00
sg5
Nsg8
Nsg9
I0
sg10
g2824
sbsVModern Art Specialist
p2827
(isrc.baseline_system.data.Page
Page
p2828
(dp2829
g4
I00
sg5
Nsg8
Nsg9
I0
sg10
g2827
sbsVvisual computing applications
p2830
(isrc.baseline_system.data.Page
Page
p2831
(dp2832
g4
I00
sg5
Nsg8
Nsg9
I0
sg10
g2830
sbsg1332
g1330
sVCoordination
p2833
(isrc.baseline_system.data.Page
Page
p2834
(dp2835
g4
I00
sg5
Nsg8
Nsg9
I1988731
sg10
g2833
sbsVUSD
p2836
(isrc.baseline_system.data.Page
Page
p2837
(dp2838
g4
I01
sg5
Nsg8
g1319
sg9
I220723
sg10
g2836
sbsVUSC
p2839
(isrc.baseline_system.data.Page
Page
p2840
(dp2841
g4
I00
sg5
Nsg8
Nsg9
I45326
sg10
g2839
sbsVChief Innovation Officer
p2842
(isrc.baseline_system.data.Page
Page
p2843
(dp2844
g4
I01
sg5
Nsg8
g1759
sg9
I28632471
sg10
g2842
sbsVUSM
p2845
(isrc.baseline_system.data.Page
Page
p2846
(dp2847
g4
I00
sg5
Nsg8
Nsg9
I504107
sg10
g2845
sbsVData Science Experience
p2848
(isrc.baseline_system.data.Page
Page
p2849
(dp2850
g4
I00
sg5
Nsg8
Nsg9
I0
sg10
g2848
sbsVChief Compliance Officer
p2851
(isrc.baseline_system.data.Page
Page
p2852
(dp2853
g4
I01
sg5
Nsg8
(isrc.baseline_system.data.Page
Page
p2854
(dp2855
g4
I00
sg5
(lp2856
VCCO
p2857
asg8
Nsg9
I9487780
sg10
VChief compliance officer
p2858
sbsg9
I17030710
sg10
g2851
sbsVLethal Autonomous Weapons Systems
p2859
(isrc.baseline_system.data.Page
Page
p2860
(dp2861
g4
I00
sg5
Nsg8
Nsg9
I0
sg10
g2859
sbsVManaged Service Providers
p2862
(isrc.baseline_system.data.Page
Page
p2863
(dp2864
g4
I01
sg5
Nsg8
(isrc.baseline_system.data.Page
Page
p2865
(dp2866
g4
I00
sg5
Nsg8
Nsg9
I1670481
sg10
VManaged services
p2867
sbsg9
I53138237
sg10
g2862
sbsVnetwork video recorder
p2868
(isrc.baseline_system.data.Page
Page
p2869
(dp2870
g4
I00
sg5
Nsg8
Nsg9
I28776425
sg10
g2868
sbsVchief information officers
p2871
(isrc.baseline_system.data.Page
Page
p2872
(dp2873
g4
I00
sg5
Nsg8
Nsg9
I0
sg10
g2871
sbsVChairman Devin Nunes
p2874
(isrc.baseline_system.data.Page
Page
p2875
(dp2876
g4
I00
sg5
Nsg8
Nsg9
I0
sg10
g2874
sbsVfalse garbage
p2877
(isrc.baseline_system.data.Page
Page
p2878
(dp2879
g4
I00
sg5
Nsg8
Nsg9
I0
sg10
g2877
sbsVPhone Company Stocks
p2880
(isrc.baseline_system.data.Page
Page
p2881
(dp2882
g4
I00
sg5
Nsg8
Nsg9
I0
sg10
g2880
sbsVCNN
p2883
(isrc.baseline_system.data.Page
Page
p2884
(dp2885
g4
I00
sg5
(lp2886
VCable News Network
p2887
aVCNN USA
p2888
aVCNN/U.S.
p2889
asg8
Nsg9
I62028
sg10
g2883
sbsVICT
p2890
(isrc.baseline_system.data.Page
Page
p2891
(dp2892
g4
I00
sg5
Nsg8
Nsg9
I199472
sg10
g2890
sbsVvertical search engines
p2893
(isrc.baseline_system.data.Page
Page
p2894
(dp2895
g4
I00
sg5
Nsg8
Nsg9
I0
sg10
g2893
sbsVindividual solution providers
p2896
(isrc.baseline_system.data.Page
Page
p2897
(dp2898
g4
I00
sg5
Nsg8
Nsg9
I0
sg10
g2896
sbsVChief financial officer
p2899
(isrc.baseline_system.data.Page
Page
p2900
(dp2901
g4
I00
sg5
(lp2902
VCFO
p2903
aVchief financial and operating officer
p2904
aVCFOO
p2905
aVfinance director
p2906
asg8
Nsg9
I80007
sg10
g2899
sbsVEducation Management Corporation
p2907
(isrc.baseline_system.data.Page
Page
p2908
(dp2909
g4
I00
sg5
Nsg8
Nsg9
I18209045
sg10
g2907
sbsVmedia resource function
p2910
(isrc.baseline_system.data.Page
Page
p2911
(dp2912
g4
I00
sg5
Nsg8
Nsg9
I0
sg10
g2910
sbsVSIP
p2913
(isrc.baseline_system.data.Page
Page
p2914
(dp2915
g4
I00
sg5
Nsg8
Nsg9
I100838
sg10
g2913
sbsg2442
g2440
sVSIM
p2916
(isrc.baseline_system.data.Page
Page
p2917
(dp2918
g4
I01
sg5
Nsg8
g1466
sg9
I233168
sg10
g2916
sbsVintegrated developer experience
p2919
(isrc.baseline_system.data.Page
Page
p2920
(dp2921
g4
I00
sg5
Nsg8
Nsg9
I0
sg10
g2919
sbsVAdvanced Persistent Threats
p2922
(isrc.baseline_system.data.Page
Page
p2923
(dp2924
g4
I00
sg5
Nsg8
Nsg9
I0
sg10
g2922
sbsVTechnology Business Incubator TBI-NITC
p2925
(isrc.baseline_system.data.Page
Page
p2926
(dp2927
g4
I00
sg5
Nsg8
Nsg9
I23991671
sg10
g2925
sbsVUK honours degree
p2928
(isrc.baseline_system.data.Page
Page
p2929
(dp2930
g4
I00
sg5
Nsg8
Nsg9
I0
sg10
g2928
sbsVredundant secure systems
p2931
(isrc.baseline_system.data.Page
Page
p2932
(dp2933
g4
I00
sg5
Nsg8
Nsg9
I0
sg10
g2931
sbsVTAA
p2934
(isrc.baseline_system.data.Page
Page
p2935
(dp2936
g4
I01
sg5
Nsg8
g76
sg9
I187204
sg10
g2934
sbsg2518
g2516
sVCSIS
p2937
(isrc.baseline_system.data.Page
Page
p2938
(dp2939
g4
I00
sg5
Nsg8
Nsg9
I23827153
sg10
g2937
sbsVGIS
p2940
(isrc.baseline_system.data.Page
Page
p2941
(dp2942
g4
I01
sg5
Nsg8
g2572
sg9
I38381
sg10
g2940
sbsVMicrosoft Dynamics Crm
p2943
(isrc.baseline_system.data.Page
Page
p2944
(dp2945
g4
I00
sg5
Nsg8
Nsg9
I0
sg10
g2943
sbsVFirstwave Cloud Technology
p2946
(isrc.baseline_system.data.Page
Page
p2947
(dp2948
g4
I00
sg5
Nsg8
Nsg9
I0
sg10
g2946
sbsVAHA
p2949
(isrc.baseline_system.data.Page
Page
p2950
(dp2951
g4
I00
sg5
Nsg8
Nsg9
I1320079
sg10
g2949
sbsVFinancial Accounting Standards Board
p2952
(isrc.baseline_system.data.Page
Page
p2953
(dp2954
g4
I00
sg5
Nsg8
Nsg9
I182311
sg10
g2952
sbsVAHM
p2955
(isrc.baseline_system.data.Page
Page
p2956
(dp2957
g4
I00
sg5
Nsg8
Nsg9
I1552782
sg10
g2955
sbsg455
g451
sVITRC
p2958
(isrc.baseline_system.data.Page
Page
p2959
(dp2960
g4
I01
sg5
Nsg8
(isrc.baseline_system.data.Page
Page
p2961
(dp2962
g4
I00
sg5
Nsg8
Nsg9
I7029862
sg10
VIndian Institute of Toxicology Research
p2963
sbsg9
I7029873
sg10
g2958
sbsVAutomakers Driver Assistance Systems
p2964
(isrc.baseline_system.data.Page
Page
p2965
(dp2966
g4
I00
sg5
Nsg8
Nsg9
I0
sg10
g2964
sbsVUnified Windows Platform
p2967
(isrc.baseline_system.data.Page
Page
p2968
(dp2969
g4
I00
sg5
Nsg8
Nsg9
I0
sg10
g2967
sbsVadvanced persistent threats
p2970
(isrc.baseline_system.data.Page
Page
p2971
(dp2972
g4
I01
sg5
Nsg8
(isrc.baseline_system.data.Page
Page
p2973
(dp2974
g4
I00
sg5
(lp2975
VAPT
p2976
asg8
Nsg9
I25874360
sg10
VAdvanced persistent threat
p2977
sbsg9
I43111025
sg10
g2970
sbsVTechnical Capabilities Orconstraints
p2978
(isrc.baseline_system.data.Page
Page
p2979
(dp2980
g4
I00
sg5
Nsg8
Nsg9
I0
sg10
g2978
sbsVNeural Machine Translation
p2981
(isrc.baseline_system.data.Page
Page
p2982
(dp2983
g4
I00
sg5
Nsg8
Nsg9
I0
sg10
g2981
sbsVFalse Garbage
p2984
(isrc.baseline_system.data.Page
Page
p2985
(dp2986
g4
I00
sg5
Nsg8
Nsg9
I0
sg10
g2984
sbsg57
g53
sVApplication Program Interface
p2987
(isrc.baseline_system.data.Page
Page
p2988
(dp2989
g4
I01
sg5
Nsg8
(isrc.baseline_system.data.Page
Page
p2990
(dp2991
g4
I00
sg5
(lp2992
VAPI
p2993
aVApplication programming interface
p2994
asg8
Nsg9
I27697009
sg10
VApplication programming interface
p2995
sbsg9
I220725
sg10
g2987
sbsVMachine Learning Benchmarks
p2996
(isrc.baseline_system.data.Page
Page
p2997
(dp2998
g4
I00
sg5
Nsg8
Nsg9
I0
sg10
g2996
sbsVinteractive voice response
p2999
(isrc.baseline_system.data.Page
Page
p3000
(dp3001
g4
I00
sg5
(lp3002
VInteractive Voice Response
p3003
asg8
Nsg9
I162186
sg10
g2999
sbsVService-level agreement
p3004
(isrc.baseline_system.data.Page
Page
p3005
(dp3006
g4
I00
sg5
(lp3007
VSLA
p3008
asg8
Nsg9
I775021
sg10
g3004
sbsVChief Executive Officer
p3009
(isrc.baseline_system.data.Page
Page
p3010
(dp3011
g4
I01
sg5
Nsg8
(isrc.baseline_system.data.Page
Page
p3012
(dp3013
g4
I00
sg5
(lp3014
VCEO
p3015
aVmanaging director
p3016
aVexecutive director
p3017
aVManaging Director
p3018
aVChief executive officer
p3019
asg8
Nsg9
I52234
sg10
VChief executive officer
p3020
sbsg9
I6522
sg10
g3009
sbsVpowerful AI supercomputer
p3021
(isrc.baseline_system.data.Page
Page
p3022
(dp3023
g4
I00
sg5
Nsg8
Nsg9
I0
sg10
g3021
sbsVConvolutional Neural Net
p3024
(isrc.baseline_system.data.Page
Page
p3025
(dp3026
g4
I00
sg5
Nsg8
Nsg9
I0
sg10
g3024
sbsVcool selection shortcut
p3027
(isrc.baseline_system.data.Page
Page
p3028
(dp3029
g4
I00
sg5
Nsg8
Nsg9
I0
sg10
g3027
sbsVBLS
p3030
(isrc.baseline_system.data.Page
Page
p3031
(dp3032
g4
I00
sg5
Nsg8
Nsg9
I417967
sg10
g3030
sbsVNFV
p3033
(isrc.baseline_system.data.Page
Page
p3034
(dp3035
g4
I00
sg5
Nsg8
Nsg9
I30402475
sg10
g3033
sbsVAdvanced Computing Systems
p3036
(isrc.baseline_system.data.Page
Page
p3037
(dp3038
g4
I00
sg5
Nsg8
Nsg9
I0
sg10
g3036
sbsVHCE
p3039
(isrc.baseline_system.data.Page
Page
p3040
(dp3041
g4
I00
sg5
Nsg8
Nsg9
I17493203
sg10
g3039
sbsVHCI
p3042
(isrc.baseline_system.data.Page
Page
p3043
(dp3044
g4
I00
sg5
Nsg8
Nsg9
I13479
sg10
g3042
sbsVHCM
p3045
(isrc.baseline_system.data.Page
Page
p3046
(dp3047
g4
I00
sg5
Nsg8
Nsg9
I727548
sg10
g3045
sbsg293
g289
sVtravel management companies
p3048
(isrc.baseline_system.data.Page
Page
p3049
(dp3050
g4
I00
sg5
Nsg8
Nsg9
I0
sg10
g3048
sbsVGoogles Tensorflow Software
p3051
(isrc.baseline_system.data.Page
Page
p3052
(dp3053
g4
I00
sg5
Nsg8
Nsg9
I0
sg10
g3051
sbsVDHAI
p3054
(isrc.baseline_system.data.Page
Page
p3055
(dp3056
g4
I01
sg5
Nsg8
(isrc.baseline_system.data.Page
Page
p3057
(dp3058
g4
I00
sg5
Nsg8
Nsg9
I55332242
sg10
VDefence, Islamabad-Rawalpindi
p3059
sbsg9
I34267794
sg10
g3054
sbsVfield programmable gate array
p3060
(isrc.baseline_system.data.Page
Page
p3061
(dp3062
g4
I01
sg5
Nsg8
(isrc.baseline_system.data.Page
Page
p3063
(dp3064
g4
I00
sg5
(lp3065
VFPGA
p3066
aVField-Programmable Gate Array
p3067
asg8
Nsg9
I10969
sg10
VField-programmable gate array
p3068
sbsg9
I592813
sg10
g3060
sbsVLZA
p3069
(isrc.baseline_system.data.Page
Page
p3070
(dp3071
g4
I01
sg5
Nsg8
g2025
sg9
I5971406
sg10
g3069
sbsVAzure Cloud-Based Services
p3072
(isrc.baseline_system.data.Page
Page
p3073
(dp3074
g4
I00
sg5
Nsg8
Nsg9
I0
sg10
g3072
sbsVvic
p3075
(isrc.baseline_system.data.Page
Page
p3076
(dp3077
g4
I00
sg5
Nsg8
Nsg9
I84827
sg10
g3075
sbsVdevice provision strategies
p3078
(isrc.baseline_system.data.Page
Page
p3079
(dp3080
g4
I00
sg5
Nsg8
Nsg9
I0
sg10
g3078
sbsVvii
p3081
(isrc.baseline_system.data.Page
Page
p3082
(dp3083
g4
I00
sg5
Nsg8
Nsg9
I13716868
sg10
g3081
sbsVDigital Health Access Initiative
p3084
(isrc.baseline_system.data.Page
Page
p3085
(dp3086
g4
I00
sg5
Nsg8
Nsg9
I0
sg10
g3084
sbsVNasdaq composite index
p3087
(isrc.baseline_system.data.Page
Page
p3088
(dp3089
g4
I01
sg5
Nsg8
(isrc.baseline_system.data.Page
Page
p3090
(dp3091
g4
I00
sg5
(lp3092
VNASDAQ Composite Index
p3093
asg8
Nsg9
I9339194
sg10
VNasdaq Composite
p3094
sbsg9
I19721590
sg10
g3087
sbsVdeepest AI investments
p3095
(isrc.baseline_system.data.Page
Page
p3096
(dp3097
g4
I00
sg5
Nsg8
Nsg9
I0
sg10
g3095
sbsVsmart city models
p3098
(isrc.baseline_system.data.Page
Page
p3099
(dp3100
g4
I00
sg5
Nsg8
Nsg9
I0
sg10
g3098
sbsVFCT
p3101
(isrc.baseline_system.data.Page
Page
p3102
(dp3103
g4
I00
sg5
Nsg8
Nsg9
I4397893
sg10
g3101
sbsVHewlett-Packard
p3104
(isrc.baseline_system.data.Page
Page
p3105
(dp3106
g4
I00
sg5
(lp3107
VHP
p3108
aVHewlett-Packard Company
p3109
aVHewlett-Packard Development Company, L.P.
p3110
aVHewlett-Packard Development Co.
p3111
aVHP Development Company
p3112
aVHewlett-Packard Company \u3001 HP
p3113
aVHewlett Packard
p3114
asg8
Nsg9
I21347024
sg10
g3104
sbsVFCA
p3115
(isrc.baseline_system.data.Page
Page
p3116
(dp3117
g4
I00
sg5
Nsg8
Nsg9
I652491
sg10
g3115
sbsg1654
g1650
sVInnovation II-38 IoT
p3118
(isrc.baseline_system.data.Page
Page
p3119
(dp3120
g4
I00
sg5
Nsg8
Nsg9
I0
sg10
g3118
sbsVAdvanced Micro Devices
p3121
(isrc.baseline_system.data.Page
Page
p3122
(dp3123
g4
I00
sg5
(lp3124
VAMD
p3125
aVAdvanced Micro Devices, Inc. (AMD)
p3126
asg8
Nsg9
I2400
sg10
g3121
sbsVmarketing planning
p3127
(isrc.baseline_system.data.Page
Page
p3128
(dp3129
g4
I00
sg5
Nsg8
Nsg9
I0
sg10
g3127
sbsVChief Information Officer
p3130
(isrc.baseline_system.data.Page
Page
p3131
(dp3132
g4
I01
sg5
Nsg8
(isrc.baseline_system.data.Page
Page
p3133
(dp3134
g4
I00
sg5
(lp3135
VCIO
p3136
asg8
Nsg9
I153852
sg10
VChief information officer
p3137
sbsg9
I5879704
sg10
g3130
sbsVIBM
p3138
(isrc.baseline_system.data.Page
Page
p3139
(dp3140
g4
I00
sg5
(lp3141
VInternational Business Machines Corporation
p3142
aVBig Blue
p3143
aVI.B.M.
p3144
aVInternational Business Machines
p3145
aVIBM Corporation
p3146
aVIBM Corp.
p3147
asg8
Nsg9
I40379651
sg10
g3138
sbsVstreaming video giant
p3148
(isrc.baseline_system.data.Page
Page
p3149
(dp3150
g4
I00
sg5
Nsg8
Nsg9
I0
sg10
g3148
sbsVMobile Ecm App
p3151
(isrc.baseline_system.data.Page
Page
p3152
(dp3153
g4
I00
sg5
Nsg8
Nsg9
I0
sg10
g3151
sbsVCAO
p3154
(isrc.baseline_system.data.Page
Page
p3155
(dp3156
g4
I01
sg5
Nsg8
(isrc.baseline_system.data.Page
Page
p3157
(dp3158
g4
I00
sg5
Nsg8
Nsg9
I5365083
sg10
VCao
p3159
sbsg9
I220624
sg10
g3154
sbsVmobile engagement services
p3160
(isrc.baseline_system.data.Page
Page
p3161
(dp3162
g4
I00
sg5
Nsg8
Nsg9
I0
sg10
g3160
sbsVCAA
p3163
(isrc.baseline_system.data.Page
Page
p3164
(dp3165
g4
I00
sg5
Nsg8
Nsg9
I375189
sg10
g3163
sbsg3059
g3057
sVConnected Devices Space
p3166
(isrc.baseline_system.data.Page
Page
p3167
(dp3168
g4
I00
sg5
Nsg8
Nsg9
I0
sg10
g3166
sbsVmobile-device-management
p3169
(isrc.baseline_system.data.Page
Page
p3170
(dp3171
g4
I00
sg5
Nsg8
Nsg9
I0
sg10
g3169
sbsVSSH
p3172
(isrc.baseline_system.data.Page
Page
p3173
(dp3174
g4
I01
sg5
Nsg8
(isrc.baseline_system.data.Page
Page
p3175
(dp3176
g4
I00
sg5
(lp3177
VSSH
p3178
asg8
Nsg9
I28814
sg10
VSecure Shell
p3179
sbsg9
I52621424
sg10
g3172
sbsVManufacturing Execution System
p3180
(isrc.baseline_system.data.Page
Page
p3181
(dp3182
g4
I01
sg5
Nsg8
(isrc.baseline_system.data.Page
Page
p3183
(dp3184
g4
I00
sg5
Nsg8
Nsg9
I20017952
sg10
VManufacturing execution system
p3185
sbsg9
I29446289
sg10
g3180
sbsVTSMC
p3186
(isrc.baseline_system.data.Page
Page
p3187
(dp3188
g4
I00
sg5
(lp3189
VTaiwan Semiconductor Manufacturing Corporation
p3190
aVTaiwan Semiconductor Co., Ltd.
p3191
asg8
Nsg9
I463574
sg10
g3186
sbsVLisp
p3192
(isrc.baseline_system.data.Page
Page
p3193
(dp3194
g4
I00
sg5
(lp3195
Vsigmatism
p3196
asg8
Nsg9
I43349786
sg10
g3192
sbsVBrazilian Police Arrest
p3197
(isrc.baseline_system.data.Page
Page
p3198
(dp3199
g4
I00
sg5
Nsg8
Nsg9
I0
sg10
g3197
sbsVCentral Intelligence Agency
p3200
(isrc.baseline_system.data.Page
Page
p3201
(dp3202
g4
I00
sg5
(lp3203
VCIA
p3204
aVC.I.A.
p3205
asg8
Nsg9
I5183633
sg10
g3200
sbsVSenior Vice-President
p3206
(isrc.baseline_system.data.Page
Page
p3207
(dp3208
g4
I00
sg5
Nsg8
Nsg9
I0
sg10
g3206
sbsVUDP
p3209
(isrc.baseline_system.data.Page
Page
p3210
(dp3211
g4
I00
sg5
Nsg8
Nsg9
I32042
sg10
g3209
sbsVChief Analytics Officer
p3212
(isrc.baseline_system.data.Page
Page
p3213
(dp3214
g4
I01
sg5
Nsg8
g194
sg9
I8516335
sg10
g3212
sbsVUDC
p3215
(isrc.baseline_system.data.Page
Page
p3216
(dp3217
g4
I00
sg5
Nsg8
Nsg9
I43095
sg10
g3215
sbsVRSS
p3218
(isrc.baseline_system.data.Page
Page
p3219
(dp3220
g4
I00
sg5
(lp3221
VReally Simple Syndication
p3222
aVRDF Site Summary
p3223
aV.rss
p3224
aVRSS
p3225
asg8
Nsg9
I93489
sg10
g3218
sbsVDeepest Ai Investments
p3226
(isrc.baseline_system.data.Page
Page
p3227
(dp3228
g4
I00
sg5
Nsg8
Nsg9
I0
sg10
g3226
sbsVmedical insurance companies
p3229
(isrc.baseline_system.data.Page
Page
p3230
(dp3231
g4
I00
sg5
Nsg8
Nsg9
I0
sg10
g3229
sbsVNSE
p3232
(isrc.baseline_system.data.Page
Page
p3233
(dp3234
g4
I00
sg5
Nsg8
Nsg9
I667239
sg10
g3232
sbsVGoogles TensorFlow software
p3235
(isrc.baseline_system.data.Page
Page
p3236
(dp3237
g4
I00
sg5
Nsg8
Nsg9
I0
sg10
g3235
sbsVWSTS
p3238
(isrc.baseline_system.data.Page
Page
p3239
(dp3240
g4
I00
sg5
Nsg8
Nsg9
I13676711
sg10
g3238
sbsVMIR
p3241
(isrc.baseline_system.data.Page
Page
p3242
(dp3243
g4
I01
sg5
Nsg8
(isrc.baseline_system.data.Page
Page
p3244
(dp3245
g4
I00
sg5
Nsg8
Nsg9
I972968
sg10
VMir (disambiguation)
p3246
sbsg9
I405262
sg10
g3241
sbsg1589
g1583
sVTata Motors Ttm
p3247
(isrc.baseline_system.data.Page
Page
p3248
(dp3249
g4
I00
sg5
Nsg8
Nsg9
I0
sg10
g3247
sbsVBusiness Transformation Initiative
p3250
(isrc.baseline_system.data.Page
Page
p3251
(dp3252
g4
I00
sg5
Nsg8
Nsg9
I0
sg10
g3250
sbsVsmart robot manufacturers
p3253
(isrc.baseline_system.data.Page
Page
p3254
(dp3255
g4
I00
sg5
Nsg8
Nsg9
I0
sg10
g3253
sbsVCloud Division
p3256
(isrc.baseline_system.data.Page
Page
p3257
(dp3258
g4
I00
sg5
Nsg8
Nsg9
I0
sg10
g3256
sbsVNatural Language processing
p3259
(isrc.baseline_system.data.Page
Page
p3260
(dp3261
g4
I00
sg5
Nsg8
Nsg9
I0
sg10
g3259
sbsVautism spectrum disorder
p3262
(isrc.baseline_system.data.Page
Page
p3263
(dp3264
g4
I01
sg5
Nsg8
g1097
sg9
I790175
sg10
g3262
sbsVCirque du Soleil
p3265
(isrc.baseline_system.data.Page
Page
p3266
(dp3267
g4
I00
sg5
Nsg8
Nsg9
I284379
sg10
g3265
sbsVEnterprise Iot Technologies
p3268
(isrc.baseline_system.data.Page
Page
p3269
(dp3270
g4
I00
sg5
Nsg8
Nsg9
I0
sg10
g3268
sbsVClinical Trials Status
p3271
(isrc.baseline_system.data.Page
Page
p3272
(dp3273
g4
I00
sg5
Nsg8
Nsg9
I0
sg10
g3271
sbsVconvolutional neural networks
p3274
(isrc.baseline_system.data.Page
Page
p3275
(dp3276
g4
I01
sg5
Nsg8
(isrc.baseline_system.data.Page
Page
p3277
(dp3278
g4
I00
sg5
(lp3279
VCNN
p3280
aVConvNet
p3281
aVConvolutional Nets
p3282
aVConvolutional Networks
p3283
aVConvolutional Network
p3284
aVConvolutional Neural Networks
p3285
aVConvolution Neural Network
p3286
asg8
Nsg9
I40409788
sg10
VConvolutional neural network
p3287
sbsg9
I50277770
sg10
g3274
sbsVUnited Arab Emirates
p3288
(isrc.baseline_system.data.Page
Page
p3289
(dp3290
g4
I00
sg5
(lp3291
VUAE
p3292
aVae
p3293
aVEmirates
p3294
aVU.A.E.
p3295
aVthe United Arab Emirates
p3296
aVthe UAE
p3297
aVthe U.A.E.
p3298
aVthe Emirates
p3299
aV\U0001f1e6\U0001f1ea
p3300
asg8
Nsg9
I69328
sg10
g3288
sbsVIPO
p3301
(isrc.baseline_system.data.Page
Page
p3302
(dp3303
g4
I01
sg5
Nsg8
g2523
sg9
I63220
sg10
g3301
sbsVIPR
p3304
(isrc.baseline_system.data.Page
Page
p3305
(dp3306
g4
I00
sg5
Nsg8
Nsg9
I1191450
sg10
g3304
sbsVACTA
p3307
(isrc.baseline_system.data.Page
Page
p3308
(dp3309
g4
I01
sg5
Nsg8
g2114
sg9
I6382800
sg10
g3307
sbsVHDP
p3310
(isrc.baseline_system.data.Page
Page
p3311
(dp3312
g4
I00
sg5
Nsg8
Nsg9
I2257772
sg10
g3310
sbsVUnstructured Data processing
p3313
(isrc.baseline_system.data.Page
Page
p3314
(dp3315
g4
I00
sg5
Nsg8
Nsg9
I0
sg10
g3313
sbsVField-Programmable Gate Arrays
p3316
(isrc.baseline_system.data.Page
Page
p3317
(dp3318
g4
I00
sg5
Nsg8
Nsg9
I0
sg10
g3316
sbsVSoftbank Robotics Pepper
p3319
(isrc.baseline_system.data.Page
Page
p3320
(dp3321
g4
I00
sg5
Nsg8
Nsg9
I0
sg10
g3319
sbsVUniversity of California, San Diego
p3322
(isrc.baseline_system.data.Page
Page
p3323
(dp3324
g4
I00
sg5
(lp3325
VUCSD
p3326
aVUC San Diego
p3327
asg8
Nsg9
I31927
sg10
g3322
sbsVcontainers simplified shipping
p3328
(isrc.baseline_system.data.Page
Page
p3329
(dp3330
g4
I00
sg5
Nsg8
Nsg9
I0
sg10
g3328
sbsVNeural Information Processing Systems
p3331
(isrc.baseline_system.data.Page
Page
p3332
(dp3333
g4
I01
sg5
Nsg8
(isrc.baseline_system.data.Page
Page
p3334
(dp3335
g4
I00
sg5
(lp3336
VNIPS
p3337
asg8
Nsg9
I1175156
sg10
VConference on Neural Information Processing Systems
p3338
sbsg9
I34265785
sg10
g3331
sbsVExponential Moving Average
p3339
(isrc.baseline_system.data.Page
Page
p3340
(dp3341
g4
I01
sg5
Nsg8
(isrc.baseline_system.data.Page
Page
p3342
(dp3343
g4
I00
sg5
Nsg8
Nsg9
I990809
sg10
VMoving average
p3344
sbsg9
I3972700
sg10
g3339
sbsVADAS
p3345
(isrc.baseline_system.data.Page
Page
p3346
(dp3347
g4
I00
sg5
(lp3348
VAdas
p3349
aVADAS (disambiguation)
p3350
asg8
Nsg9
I984725
sg10
g3345
sbsVBMR
p3351
(isrc.baseline_system.data.Page
Page
p3352
(dp3353
g4
I00
sg5
Nsg8
Nsg9
I2896882
sg10
g3351
sbsVALMs Consulting Magazine
p3354
(isrc.baseline_system.data.Page
Page
p3355
(dp3356
g4
I00
sg5
Nsg8
Nsg9
I0
sg10
g3354
sbsVhome cook iteration
p3357
(isrc.baseline_system.data.Page
Page
p3358
(dp3359
g4
I00
sg5
Nsg8
Nsg9
I0
sg10
g3357
sbsVCognitive Media Platform
p3360
(isrc.baseline_system.data.Page
Page
p3361
(dp3362
g4
I00
sg5
Nsg8
Nsg9
I0
sg10
g3360
sbsVTravel Management Companies
p3363
(isrc.baseline_system.data.Page
Page
p3364
(dp3365
g4
I00
sg5
Nsg8
Nsg9
I0
sg10
g3363
sbsVdata science team
p3366
(isrc.baseline_system.data.Page
Page
p3367
(dp3368
g4
I00
sg5
Nsg8
Nsg9
I0
sg10
g3366
sbsVHaaS
p3369
(isrc.baseline_system.data.Page
Page
p3370
(dp3371
g4
I00
sg5
Nsg8
Nsg9
I0
sg10
g3369
sbsVEMRs
p3372
(isrc.baseline_system.data.Page
Page
p3373
(dp3374
g4
I00
sg5
Nsg8
Nsg9
I0
sg10
g3372
sbsVAgile Software Development
p3375
(isrc.baseline_system.data.Page
Page
p3376
(dp3377
g4
I01
sg5
Nsg8
g2567
sg9
I1597404
sg10
g3375
sbsVCea
p3378
(isrc.baseline_system.data.Page
Page
p3379
(dp3380
g4
I00
sg5
Nsg8
Nsg9
I11988983
sg10
g3378
sbsg682
g680
sVMGH
p3381
(isrc.baseline_system.data.Page
Page
p3382
(dp3383
g4
I00
sg5
Nsg8
Nsg9
I1471191
sg10
g3381
sbsVTBI
p3384
(isrc.baseline_system.data.Page
Page
p3385
(dp3386
g4
I00
sg5
Nsg8
Nsg9
I983432
sg10
g3384
sbsVNatural Language Generation
p3387
(isrc.baseline_system.data.Page
Page
p3388
(dp3389
g4
I00
sg5
Nsg8
Nsg9
I0
sg10
g3387
sbsVaccurate speech recognition
p3390
(isrc.baseline_system.data.Page
Page
p3391
(dp3392
g4
I00
sg5
Nsg8
Nsg9
I0
sg10
g3390
sbsg857
g852
sg3137
g3133
sVTata Motors ttm
p3393
(isrc.baseline_system.data.Page
Page
p3394
(dp3395
g4
I00
sg5
Nsg8
Nsg9
I0
sg10
g3393
sbsVreal time kinematics
p3396
(isrc.baseline_system.data.Page
Page
p3397
(dp3398
g4
I00
sg5
Nsg8
Nsg9
I0
sg10
g3396
sbsVSword Art Online
p3399
(isrc.baseline_system.data.Page
Page
p3400
(dp3401
g4
I00
sg5
(lp3402
VSAO
p3403
asg8
Nsg9
I33270508
sg10
g3399
sbsVDependency Discovery Engine
p3404
(isrc.baseline_system.data.Page
Page
p3405
(dp3406
g4
I00
sg5
Nsg8
Nsg9
I0
sg10
g3404
sbsVpublic-cloud infrastructure
p3407
(isrc.baseline_system.data.Page
Page
p3408
(dp3409
g4
I00
sg5
Nsg8
Nsg9
I0
sg10
g3407
sbsVLethal Autonomous Weapon Systems
p3410
(isrc.baseline_system.data.Page
Page
p3411
(dp3412
g4
I00
sg5
Nsg8
Nsg9
I0
sg10
g3410
sbsVVicom Computer Services
p3413
(isrc.baseline_system.data.Page
Page
p3414
(dp3415
g4
I00
sg5
Nsg8
Nsg9
I0
sg10
g3413
sbsVManaged Service Provider
p3416
(isrc.baseline_system.data.Page
Page
p3417
(dp3418
g4
I01
sg5
Nsg8
(isrc.baseline_system.data.Page
Page
p3419
(dp3420
g4
I00
sg5
Nsg8
Nsg9
I1670481
sg10
VManaged services
p3421
sbsg9
I4982246
sg10
g3416
sbsVMapD
p3422
(isrc.baseline_system.data.Page
Page
p3423
(dp3424
g4
I00
sg5
Nsg8
Nsg9
I0
sg10
g3422
sbsVMarketing Planning
p3425
(isrc.baseline_system.data.Page
Page
p3426
(dp3427
g4
I00
sg5
Nsg8
Nsg9
I0
sg10
g3425
sbsVCredit Score Engine
p3428
(isrc.baseline_system.data.Page
Page
p3429
(dp3430
g4
I00
sg5
Nsg8
Nsg9
I0
sg10
g3428
sbsVCognitive Pitch Competition
p3431
(isrc.baseline_system.data.Page
Page
p3432
(dp3433
g4
I00
sg5
Nsg8
Nsg9
I0
sg10
g3431
sbsVcloud industry partners
p3434
(isrc.baseline_system.data.Page
Page
p3435
(dp3436
g4
I00
sg5
Nsg8
Nsg9
I0
sg10
g3434
sbsVGTA
p3437
(isrc.baseline_system.data.Page
Page
p3438
(dp3439
g4
I00
sg5
Nsg8
Nsg9
I629308
sg10
g3437
sbsVSignificant Societal Dislocation
p3440
(isrc.baseline_system.data.Page
Page
p3441
(dp3442
g4
I00
sg5
Nsg8
Nsg9
I0
sg10
g3440
sbsVGTS
p3443
(isrc.baseline_system.data.Page
Page
p3444
(dp3445
g4
I00
sg5
Nsg8
Nsg9
I1199740
sg10
g3443
sbsVNatural-Language Processing
p3446
(isrc.baseline_system.data.Page
Page
p3447
(dp3448
g4
I00
sg5
Nsg8
Nsg9
I0
sg10
g3446
sbsVadvanced computer systems
p3449
(isrc.baseline_system.data.Page
Page
p3450
(dp3451
g4
I00
sg5
Nsg8
Nsg9
I0
sg10
g3449
sbsVMedical Research Company
p3452
(isrc.baseline_system.data.Page
Page
p3453
(dp3454
g4
I00
sg5
Nsg8
Nsg9
I0
sg10
g3452
sbsVDiabetes mellitus type 1
p3455
(isrc.baseline_system.data.Page
Page
p3456
(dp3457
g4
I00
sg5
(lp3458
VIDDM
p3459
aVinsulin-dependent diabetes mellitus
p3460
aVtype I diabetes mellitus
p3461
aVtype 1 diabetes
p3462
aVT1DM
p3463
aVinsulin dependent diabetes
p3464
aVjuvenile diabetes
p3465
aVdiabetes mellitus juvenile type
p3466
asg8
Nsg9
I2812725
sg10
g3455
sbsVunified Windows platform
p3467
(isrc.baseline_system.data.Page
Page
p3468
(dp3469
g4
I00
sg5
Nsg8
Nsg9
I0
sg10
g3467
sbsVword error rate
p3470
(isrc.baseline_system.data.Page
Page
p3471
(dp3472
g4
I00
sg5
Nsg8
Nsg9
I5190349
sg10
g3470
sbsVIntels Chief Executive
p3473
(isrc.baseline_system.data.Page
Page
p3474
(dp3475
g4
I00
sg5
Nsg8
Nsg9
I0
sg10
g3473
sbsVmuscle tension dysphonia
p3476
(isrc.baseline_system.data.Page
Page
p3477
(dp3478
g4
I01
sg5
Nsg8
(isrc.baseline_system.data.Page
Page
p3479
(dp3480
g4
I00
sg5
(lp3481
Vhoarseness
p3482
asg8
Nsg9
I2726497
sg10
VHoarse voice
p3483
sbsg9
I54568259
sg10
g3476
sbsVCarnegie Mellon University
p3484
(isrc.baseline_system.data.Page
Page
p3485
(dp3486
g4
I00
sg5
(lp3487
VCMU
p3488
aVCarnegie Mellon
p3489
asg8
Nsg9
I48093
sg10
g3484
sbsVLUIS
p3490
(isrc.baseline_system.data.Page
Page
p3491
(dp3492
g4
I00
sg5
Nsg8
Nsg9
I0
sg10
g3490
sbsVlie
p3493
(isrc.baseline_system.data.Page
Page
p3494
(dp3495
g4
I00
sg5
Nsg8
Nsg9
I229723
sg10
g3493
sbsVTechnology Business Incubator
p3496
(isrc.baseline_system.data.Page
Page
p3497
(dp3498
g4
I01
sg5
Nsg8
g2926
sg9
I23992173
sg10
g3496
sbsVchief marketing officer
p3499
(isrc.baseline_system.data.Page
Page
p3500
(dp3501
g4
I00
sg5
(lp3502
VCMO
p3503
asg8
Nsg9
I1046550
sg10
g3499
sbsVPermanent Cognitive Issues
p3504
(isrc.baseline_system.data.Page
Page
p3505
(dp3506
g4
I00
sg5
Nsg8
Nsg9
I0
sg10
g3504
sbsVAmerican Heart Association
p3507
(isrc.baseline_system.data.Page
Page
p3508
(dp3509
g4
I00
sg5
(lp3510
VAHA
p3511
aVAssociation for the Prevention and Relief of Heart Disease
p3512
asg8
Nsg9
I581673
sg10
g3507
sbsVMajorcloud service providers
p3513
(isrc.baseline_system.data.Page
Page
p3514
(dp3515
g4
I00
sg5
Nsg8
Nsg9
I0
sg10
g3513
sbsVAzure Cdn Services
p3516
(isrc.baseline_system.data.Page
Page
p3517
(dp3518
g4
I00
sg5
Nsg8
Nsg9
I0
sg10
g3516
sbsVFood and Agriculture Organization
p3519
(isrc.baseline_system.data.Page
Page
p3520
(dp3521
g4
I00
sg5
(lp3522
VFAO
p3523
aVFood and Agriculture Organization
p3524
aVONUAA
p3525
asg8
Nsg9
I11107
sg10
g3519
sbsVdense CPU/memory model
p3526
(isrc.baseline_system.data.Page
Page
p3527
(dp3528
g4
I00
sg5
Nsg8
Nsg9
I0
sg10
g3526
sbsVchief commercial officer
p3529
(isrc.baseline_system.data.Page
Page
p3530
(dp3531
g4
I00
sg5
Nsg8
Nsg9
I27907548
sg10
g3529
sbsg3483
g3479
sVFIBO
p3532
(isrc.baseline_system.data.Page
Page
p3533
(dp3534
g4
I01
sg5
Nsg8
g222
sg9
I56109321
sg10
g3532
sbsVCloud Content Security Gateway
p3535
(isrc.baseline_system.data.Page
Page
p3536
(dp3537
g4
I00
sg5
Nsg8
Nsg9
I0
sg10
g3535
sbsVrobot operating system
p3538
(isrc.baseline_system.data.Page
Page
p3539
(dp3540
g4
I01
sg5
Nsg8
g1899
sg9
I37784115
sg10
g3538
sbsVElaborate Security Protocols
p3541
(isrc.baseline_system.data.Page
Page
p3542
(dp3543
g4
I00
sg5
Nsg8
Nsg9
I0
sg10
g3541
sbsVCustomer relationship management
p3544
(isrc.baseline_system.data.Page
Page
p3545
(dp3546
g4
I00
sg5
(lp3547
VCRM
p3548
aVCustomer Relationship Management System
p3549
aVCRM system
p3550
asg8
Nsg9
I6968
sg10
g3544
sbsVLevodopa equivalent dose
p3551
(isrc.baseline_system.data.Page
Page
p3552
(dp3553
g4
I00
sg5
Nsg8
Nsg9
I0
sg10
g3551
sbsVfuture cloud talent
p3554
(isrc.baseline_system.data.Page
Page
p3555
(dp3556
g4
I00
sg5
Nsg8
Nsg9
I0
sg10
g3554
sbsVIAM
p3557
(isrc.baseline_system.data.Page
Page
p3558
(dp3559
g4
I00
sg5
Nsg8
Nsg9
I81833
sg10
g3557
sbsVCustomer Service Reps
p3560
(isrc.baseline_system.data.Page
Page
p3561
(dp3562
g4
I00
sg5
Nsg8
Nsg9
I0
sg10
g3560
sbsg1742
g1728
sVIAC
p3563
(isrc.baseline_system.data.Page
Page
p3564
(dp3565
g4
I00
sg5
Nsg8
Nsg9
I317560
sg10
g3563
sbsVintelligent communication technologies
p3566
(isrc.baseline_system.data.Page
Page
p3567
(dp3568
g4
I00
sg5
Nsg8
Nsg9
I0
sg10
g3566
sbsVEmbedded system
p3569
(isrc.baseline_system.data.Page
Page
p3570
(dp3571
g4
I00
sg5
Nsg8
Nsg9
I46630
sg10
g3569
sbsVKnow Your Customer
p3572
(isrc.baseline_system.data.Page
Page
p3573
(dp3574
g4
I01
sg5
Nsg8
g1994
sg9
I45313677
sg10
g3572
sbsVlatency insensitive software package
p3575
(isrc.baseline_system.data.Page
Page
p3576
(dp3577
g4
I00
sg5
Nsg8
Nsg9
I0
sg10
g3575
sbsVPHI
p3578
(isrc.baseline_system.data.Page
Page
p3579
(dp3580
g4
I01
sg5
Nsg8
g2789
sg9
I5140106
sg10
g3578
sbsVIASB
p3581
(isrc.baseline_system.data.Page
Page
p3582
(dp3583
g4
I01
sg5
Nsg8
(isrc.baseline_system.data.Page
Page
p3584
(dp3585
g4
I00
sg5
Nsg8
Nsg9
I8889088
sg10
VInternational Accounting Standards Board
p3586
sbsg9
I8564376
sg10
g3581
sbsVService Level Agreement
p3587
(isrc.baseline_system.data.Page
Page
p3588
(dp3589
g4
I01
sg5
Nsg8
g3005
sg9
I16293796
sg10
g3587
sbsVElectronic Image Stabilization
p3590
(isrc.baseline_system.data.Page
Page
p3591
(dp3592
g4
I00
sg5
Nsg8
Nsg9
I0
sg10
g3590
sbsg1282
g1280
sVUC-San Diego
p3593
(isrc.baseline_system.data.Page
Page
p3594
(dp3595
g4
I01
sg5
Nsg8
g3323
sg9
I1757530
sg10
g3593
sbsVExecutive Vice president
p3596
(isrc.baseline_system.data.Page
Page
p3597
(dp3598
g4
I00
sg5
Nsg8
Nsg9
I0
sg10
g3596
sbsVcomputational fluid dynamics
p3599
(isrc.baseline_system.data.Page
Page
p3600
(dp3601
g4
I00
sg5
(lp3602
VCFD
p3603
asg8
Nsg9
I305924
sg10
g3599
sbsVDatical
p3604
(isrc.baseline_system.data.Page
Page
p3605
(dp3606
g4
I00
sg5
Nsg8
Nsg9
I0
sg10
g3604
sbsVInternational Telecommunication Union
p3607
(isrc.baseline_system.data.Page
Page
p3608
(dp3609
g4
I00
sg5
(lp3610
VITU
p3611
aVInternational Telegraph Union
p3612
asg8
Nsg9
I14836
sg10
g3607
sbsVSKA
p3613
(isrc.baseline_system.data.Page
Page
p3614
(dp3615
g4
I00
sg5
Nsg8
Nsg9
I1454297
sg10
g3613
sbsVcloud data warehouses
p3616
(isrc.baseline_system.data.Page
Page
p3617
(dp3618
g4
I00
sg5
Nsg8
Nsg9
I0
sg10
g3616
sbsVTCR
p3619
(isrc.baseline_system.data.Page
Page
p3620
(dp3621
g4
I00
sg5
Nsg8
Nsg9
I1829333
sg10
g3619
sbsVTCS
p3622
(isrc.baseline_system.data.Page
Page
p3623
(dp3624
g4
I00
sg5
Nsg8
Nsg9
I322449
sg10
g3622
sbsVTIA
p3625
(isrc.baseline_system.data.Page
Page
p3626
(dp3627
g4
I00
sg5
Nsg8
Nsg9
I231714
sg10
g3625
sbsVTCO
p3628
(isrc.baseline_system.data.Page
Page
p3629
(dp3630
g4
I00
sg5
Nsg8
Nsg9
I488878
sg10
g3628
sbsVNational Stock Exchange
p3631
(isrc.baseline_system.data.Page
Page
p3632
(dp3633
g4
I00
sg5
Nsg8
Nsg9
I10656235
sg10
g3631
sbsVWall Street Journalspeculated
p3634
(isrc.baseline_system.data.Page
Page
p3635
(dp3636
g4
I00
sg5
Nsg8
Nsg9
I0
sg10
g3634
sbsVBlood glucose monitoring
p3637
(isrc.baseline_system.data.Page
Page
p3638
(dp3639
g4
I00
sg5
Nsg8
Nsg9
I56557
sg10
g3637
sbsVsolid-state drive
p3640
(isrc.baseline_system.data.Page
Page
p3641
(dp3642
g4
I00
sg5
(lp3643
Vsolid-state disk
p3644
aVSSD
p3645
aVelectronic disk
p3646
aVSolid State Disk
p3647
aVSolid state drive, SSD
p3648
asg8
Nsg9
I7366298
sg10
g3640
sbsVDDE
p3649
(isrc.baseline_system.data.Page
Page
p3650
(dp3651
g4
I00
sg5
Nsg8
Nsg9
I1019037
sg10
g3649
sbsVT1D
p3652
(isrc.baseline_system.data.Page
Page
p3653
(dp3654
g4
I01
sg5
Nsg8
g3456
sg9
I16907572
sg10
g3652
sbsVdigital signal processors
p3655
(isrc.baseline_system.data.Page
Page
p3656
(dp3657
g4
I01
sg5
Nsg8
(isrc.baseline_system.data.Page
Page
p3658
(dp3659
g4
I00
sg5
(lp3660
VDSP
p3661
aVDigital signal processor\uff0cDSP
p3662
asg8
Nsg9
I154505
sg10
VDigital signal processor
p3663
sbsg9
I154510
sg10
g3655
sbsVANA
p3664
(isrc.baseline_system.data.Page
Page
p3665
(dp3666
g4
I01
sg5
Nsg8
(isrc.baseline_system.data.Page
Page
p3667
(dp3668
g4
I00
sg5
Nsg8
Nsg9
I118395
sg10
VAna
p3669
sbsg9
I38270917
sg10
g3664
sbsVHard
p3670
(isrc.baseline_system.data.Page
Page
p3671
(dp3672
g4
I00
sg5
Nsg8
Nsg9
I732244
sg10
g3670
sbsVANI
p3673
(isrc.baseline_system.data.Page
Page
p3674
(dp3675
g4
I01
sg5
Nsg8
g2771
sg9
I291657
sg10
g3673
sbsVinstant alarm monitoring
p3676
(isrc.baseline_system.data.Page
Page
p3677
(dp3678
g4
I00
sg5
Nsg8
Nsg9
I0
sg10
g3676
sbsVEmbedded hardware
p3679
(isrc.baseline_system.data.Page
Page
p3680
(dp3681
g4
I01
sg5
Nsg8
g3570
sg9
I24340367
sg10
g3679
sbsVAdvanced Driver-Assist Systems
p3682
(isrc.baseline_system.data.Page
Page
p3683
(dp3684
g4
I00
sg5
Nsg8
Nsg9
I0
sg10
g3682
sbsVTMR
p3685
(isrc.baseline_system.data.Page
Page
p3686
(dp3687
g4
I00
sg5
Nsg8
Nsg9
I1168683
sg10
g3685
sbsVTMT
p3688
(isrc.baseline_system.data.Page
Page
p3689
(dp3690
g4
I00
sg5
Nsg8
Nsg9
I5166129
sg10
g3688
sbsg243
g239
sVglobal technology service
p3691
(isrc.baseline_system.data.Page
Page
p3692
(dp3693
g4
I00
sg5
Nsg8
Nsg9
I0
sg10
g3691
sbsVTMC
p3694
(isrc.baseline_system.data.Page
Page
p3695
(dp3696
g4
I00
sg5
Nsg8
Nsg9
I346201
sg10
g3694
sbsVGovernment Contractor Primes
p3697
(isrc.baseline_system.data.Page
Page
p3698
(dp3699
g4
I00
sg5
Nsg8
Nsg9
I0
sg10
g3697
sbsVMultiple Input Channels
p3700
(isrc.baseline_system.data.Page
Page
p3701
(dp3702
g4
I00
sg5
Nsg8
Nsg9
I0
sg10
g3700
sbsVPower Customer Service
p3703
(isrc.baseline_system.data.Page
Page
p3704
(dp3705
g4
I00
sg5
Nsg8
Nsg9
I0
sg10
g3703
sbsVCoho Data CTO
p3706
(isrc.baseline_system.data.Page
Page
p3707
(dp3708
g4
I00
sg5
Nsg8
Nsg9
I0
sg10
g3706
sbsVfailed chatbot attempt
p3709
(isrc.baseline_system.data.Page
Page
p3710
(dp3711
g4
I00
sg5
Nsg8
Nsg9
I0
sg10
g3709
sbsVSocial And Emotional
p3712
(isrc.baseline_system.data.Page
Page
p3713
(dp3714
g4
I00
sg5
Nsg8
Nsg9
I0
sg10
g3712
sbsVDublin City University
p3715
(isrc.baseline_system.data.Page
Page
p3716
(dp3717
g4
I00
sg5
Nsg8
Nsg9
I390702
sg10
g3715
sbsVADR
p3718
(isrc.baseline_system.data.Page
Page
p3719
(dp3720
g4
I00
sg5
Nsg8
Nsg9
I862172
sg10
g3718
sbsVtype 1 diabetes
p3721
(isrc.baseline_system.data.Page
Page
p3722
(dp3723
g4
I01
sg5
Nsg8
(isrc.baseline_system.data.Page
Page
p3724
(dp3725
g4
I00
sg5
(lp3726
VIDDM
p3727
aVinsulin-dependent diabetes mellitus
p3728
aVtype I diabetes mellitus
p3729
aVtype 1 diabetes
p3730
aVT1DM
p3731
aVinsulin dependent diabetes
p3732
aVjuvenile diabetes
p3733
aVdiabetes mellitus juvenile type
p3734
asg8
Nsg9
I2812725
sg10
VDiabetes mellitus type 1
p3735
sbsg9
I634384
sg10
g3721
sbsVKDP
p3736
(isrc.baseline_system.data.Page
Page
p3737
(dp3738
g4
I01
sg5
Nsg8
g1179
sg9
I26641349
sg10
g3736
sbsVMobile Device Management
p3739
(isrc.baseline_system.data.Page
Page
p3740
(dp3741
g4
I01
sg5
Nsg8
g2201
sg9
I20152216
sg10
g3739
sbsVCubic Transportation Systems
p3742
(isrc.baseline_system.data.Page
Page
p3743
(dp3744
g4
I00
sg5
Nsg8
Nsg9
I31937930
sg10
g3742
sbsVFailed Chatbot Attempt
p3745
(isrc.baseline_system.data.Page
Page
p3746
(dp3747
g4
I00
sg5
Nsg8
Nsg9
I0
sg10
g3745
sbsVGeneral Strong Ai
p3748
(isrc.baseline_system.data.Page
Page
p3749
(dp3750
g4
I00
sg5
Nsg8
Nsg9
I0
sg10
g3748
sbsVconsistent storage
p3751
(isrc.baseline_system.data.Page
Page
p3752
(dp3753
g4
I00
sg5
Nsg8
Nsg9
I0
sg10
g3751
sbsVSoftware
p3754
(isrc.baseline_system.data.Page
Page
p3755
(dp3756
g4
I00
sg5
(lp3757
Vcomputer software
p3758
asg8
Nsg9
I5309
sg10
g3754
sbsVVisionary Innovation Including
p3759
(isrc.baseline_system.data.Page
Page
p3760
(dp3761
g4
I00
sg5
Nsg8
Nsg9
I0
sg10
g3759
sbsVColmobil auto agency
p3762
(isrc.baseline_system.data.Page
Page
p3763
(dp3764
g4
I00
sg5
Nsg8
Nsg9
I0
sg10
g3762
sbsVoptical character recognition
p3765
(isrc.baseline_system.data.Page
Page
p3766
(dp3767
g4
I00
sg5
(lp3768
VOCR
p3769
asg8
Nsg9
I49091
sg10
g3765
sbsVSquare Kilometer Array
p3770
(isrc.baseline_system.data.Page
Page
p3771
(dp3772
g4
I01
sg5
Nsg8
g2081
sg9
I6126742
sg10
g3770
sbsg3179
g3175
sVLEDs
p3773
(isrc.baseline_system.data.Page
Page
p3774
(dp3775
g4
I01
sg5
Nsg8
g1253
sg9
I1280274
sg10
g3773
sbsVEIT
p3776
(isrc.baseline_system.data.Page
Page
p3777
(dp3778
g4
I00
sg5
Nsg8
Nsg9
I411062
sg10
g3776
sbsVWSJ
p3779
(isrc.baseline_system.data.Page
Page
p3780
(dp3781
g4
I01
sg5
Nsg8
(isrc.baseline_system.data.Page
Page
p3782
(dp3783
g4
I00
sg5
(lp3784
VWall Street Journal
p3785
aVWSJ
p3786
aVThe Journal
p3787
aVThe Wall Street Journal , WSJ
p3788
asg8
Nsg9
I173070
sg10
VThe Wall Street Journal
p3789
sbsg9
I262589
sg10
g3779
sbsVSVM
p3790
(isrc.baseline_system.data.Page
Page
p3791
(dp3792
g4
I00
sg5
Nsg8
Nsg9
I303910
sg10
g3790
sbsVLargest Annual Gathering
p3793
(isrc.baseline_system.data.Page
Page
p3794
(dp3795
g4
I00
sg5
Nsg8
Nsg9
I0
sg10
g3793
sbsVglobal positioning system
p3796
(isrc.baseline_system.data.Page
Page
p3797
(dp3798
g4
I01
sg5
Nsg8
(isrc.baseline_system.data.Page
Page
p3799
(dp3800
g4
I00
sg5
(lp3801
VGPS
p3802
aVGlobal Positioning System, GPS
p3803
asg8
Nsg9
I11866
sg10
VGlobal Positioning System
p3804
sbsg9
I12993
sg10
g3796
sbsVCustomizable Eicosapentaenoic Acid
p3805
(isrc.baseline_system.data.Page
Page
p3806
(dp3807
g4
I00
sg5
Nsg8
Nsg9
I0
sg10
g3805
sbsVclinical trials status
p3808
(isrc.baseline_system.data.Page
Page
p3809
(dp3810
g4
I00
sg5
Nsg8
Nsg9
I0
sg10
g3808
sbsVautomated board inspection
p3811
(isrc.baseline_system.data.Page
Page
p3812
(dp3813
g4
I00
sg5
Nsg8
Nsg9
I0
sg10
g3811
sbsVmobile computing market
p3814
(isrc.baseline_system.data.Page
Page
p3815
(dp3816
g4
I00
sg5
Nsg8
Nsg9
I0
sg10
g3814
sbsVFAO
p3817
(isrc.baseline_system.data.Page
Page
p3818
(dp3819
g4
I01
sg5
Nsg8
g3520
sg9
I4052047
sg10
g3817
sbsVSVG
p3820
(isrc.baseline_system.data.Page
Page
p3821
(dp3822
g4
I01
sg5
Nsg8
g257
sg9
I4397718
sg10
g3820
sbsVOSRF
p3823
(isrc.baseline_system.data.Page
Page
p3824
(dp3825
g4
I00
sg5
Nsg8
Nsg9
I0
sg10
g3823
sbsVchief operation officer
p3826
(isrc.baseline_system.data.Page
Page
p3827
(dp3828
g4
I00
sg5
Nsg8
Nsg9
I0
sg10
g3826
sbsg2963
g2961
sVSearch Analytics Firmsspyfu
p3829
(isrc.baseline_system.data.Page
Page
p3830
(dp3831
g4
I00
sg5
Nsg8
Nsg9
I0
sg10
g3829
sbsVitsARM-based SoC designs
p3832
(isrc.baseline_system.data.Page
Page
p3833
(dp3834
g4
I00
sg5
Nsg8
Nsg9
I0
sg10
g3832
sbsVCommerce Applications
p3835
(isrc.baseline_system.data.Page
Page
p3836
(dp3837
g4
I00
sg5
Nsg8
Nsg9
I0
sg10
g3835
sbsVAdvanced Computer Systems
p3838
(isrc.baseline_system.data.Page
Page
p3839
(dp3840
g4
I00
sg5
Nsg8
Nsg9
I0
sg10
g3838
sbsVConsumer-Electronics Show
p3841
(isrc.baseline_system.data.Page
Page
p3842
(dp3843
g4
I00
sg5
Nsg8
Nsg9
I0
sg10
g3841
sbsVLLNL
p3844
(isrc.baseline_system.data.Page
Page
p3845
(dp3846
g4
I01
sg5
Nsg8
g918
sg9
I205325
sg10
g3844
sbsVBusiness Development Centers
p3847
(isrc.baseline_system.data.Page
Page
p3848
(dp3849
g4
I00
sg5
Nsg8
Nsg9
I0
sg10
g3847
sbsVAdvanced Driver Assistance Systems
p3850
(isrc.baseline_system.data.Page
Page
p3851
(dp3852
g4
I01
sg5
Nsg8
(isrc.baseline_system.data.Page
Page
p3853
(dp3854
g4
I00
sg5
Nsg8
Nsg9
I984718
sg10
VAdvanced driver-assistance systems
p3855
sbsg9
I14115593
sg10
g3850
sbsVIntelligent Virtual Assistant
p3856
(isrc.baseline_system.data.Page
Page
p3857
(dp3858
g4
I00
sg5
Nsg8
Nsg9
I0
sg10
g3856
sbsVTemporal Transition Hierarchies
p3859
(isrc.baseline_system.data.Page
Page
p3860
(dp3861
g4
I00
sg5
Nsg8
Nsg9
I0
sg10
g3859
sbsVgeographic information system
p3862
(isrc.baseline_system.data.Page
Page
p3863
(dp3864
g4
I00
sg5
(lp3865
VGIS
p3866
asg8
Nsg9
I12398
sg10
g3862
sbsVPowerful And Innovative
p3867
(isrc.baseline_system.data.Page
Page
p3868
(dp3869
g4
I00
sg5
Nsg8
Nsg9
I0
sg10
g3867
sbsg1413
g1409
sVOptical Character Recognition
p3870
(isrc.baseline_system.data.Page
Page
p3871
(dp3872
g4
I01
sg5
Nsg8
(isrc.baseline_system.data.Page
Page
p3873
(dp3874
g4
I00
sg5
(lp3875
VOCR
p3876
asg8
Nsg9
I49091
sg10
VOptical character recognition
p3877
sbsg9
I513797
sg10
g3870
sbsVCCO
p3878
(isrc.baseline_system.data.Page
Page
p3879
(dp3880
g4
I00
sg5
Nsg8
Nsg9
I1667419
sg10
g3878
sbsg2599
g2597
sVGeographic Information System
p3881
(isrc.baseline_system.data.Page
Page
p3882
(dp3883
g4
I01
sg5
Nsg8
(isrc.baseline_system.data.Page
Page
p3884
(dp3885
g4
I00
sg5
(lp3886
VGIS
p3887
asg8
Nsg9
I12398
sg10
VGeographic information system
p3888
sbsg9
I7365017
sg10
g3881
sbsVRPA
p3889
(isrc.baseline_system.data.Page
Page
p3890
(dp3891
g4
I00
sg5
Nsg8
Nsg9
I984634
sg10
g3889
sbsVInternational Business Machine
p3892
(isrc.baseline_system.data.Page
Page
p3893
(dp3894
g4
I01
sg5
Nsg8
(isrc.baseline_system.data.Page
Page
p3895
(dp3896
g4
I00
sg5
(lp3897
VInternational Business Machines Corporation
p3898
aVBig Blue
p3899
aVI.B.M.
p3900
aVInternational Business Machines
p3901
aVIBM Corporation
p3902
aVIBM Corp.
p3903
asg8
Nsg9
I40379651
sg10
VIBM
p3904
sbsg9
I2093975
sg10
g3892
sbsVdriving business engagements
p3905
(isrc.baseline_system.data.Page
Page
p3906
(dp3907
g4
I00
sg5
Nsg8
Nsg9
I0
sg10
g3905
sbsVadvanced computing systems
p3908
(isrc.baseline_system.data.Page
Page
p3909
(dp3910
g4
I00
sg5
Nsg8
Nsg9
I0
sg10
g3908
sbsVPIP
p3911
(isrc.baseline_system.data.Page
Page
p3912
(dp3913
g4
I01
sg5
Nsg8
g2665
sg9
I337234
sg10
g3911
sbsVRapid Technological Change
p3914
(isrc.baseline_system.data.Page
Page
p3915
(dp3916
g4
I00
sg5
Nsg8
Nsg9
I0
sg10
g3914
sbsVPublic Cloud Infrastructure
p3917
(isrc.baseline_system.data.Page
Page
p3918
(dp3919
g4
I00
sg5
Nsg8
Nsg9
I0
sg10
g3917
sbsVPOI
p3920
(isrc.baseline_system.data.Page
Page
p3921
(dp3922
g4
I01
sg5
Nsg8
(isrc.baseline_system.data.Page
Page
p3923
(dp3924
g4
I00
sg5
Nsg8
Nsg9
I1968165
sg10
VPoi
p3925
sbsg9
I206989
sg10
g3920
sbsVSleep Monitoring System
p3926
(isrc.baseline_system.data.Page
Page
p3927
(dp3928
g4
I00
sg5
Nsg8
Nsg9
I0
sg10
g3926
sbsVPatrizia C. Mcbride
p3929
(isrc.baseline_system.data.Page
Page
p3930
(dp3931
g4
I00
sg5
Nsg8
Nsg9
I0
sg10
g3929
sbsVsupport vector machine
p3932
(isrc.baseline_system.data.Page
Page
p3933
(dp3934
g4
I00
sg5
(lp3935
Vsupport vector machine
p3936
aVSVM
p3937
asg8
Nsg9
I65309
sg10
g3932
sbsVinfrastructure solutions provider
p3938
(isrc.baseline_system.data.Page
Page
p3939
(dp3940
g4
I00
sg5
Nsg8
Nsg9
I0
sg10
g3938
sbsVComputer Security Stack
p3941
(isrc.baseline_system.data.Page
Page
p3942
(dp3943
g4
I00
sg5
Nsg8
Nsg9
I0
sg10
g3941
sbsVPowerful Ai Supercomputer
p3944
(isrc.baseline_system.data.Page
Page
p3945
(dp3946
g4
I00
sg5
Nsg8
Nsg9
I0
sg10
g3944
sbsVIntensive Virtualization Applications
p3947
(isrc.baseline_system.data.Page
Page
p3948
(dp3949
g4
I00
sg5
Nsg8
Nsg9
I0
sg10
g3947
sbsVCfo Martin Schroeter
p3950
(isrc.baseline_system.data.Page
Page
p3951
(dp3952
g4
I00
sg5
Nsg8
Nsg9
I0
sg10
g3950
sbsVsolid state drives
p3953
(isrc.baseline_system.data.Page
Page
p3954
(dp3955
g4
I01
sg5
Nsg8
(isrc.baseline_system.data.Page
Page
p3956
(dp3957
g4
I00
sg5
(lp3958
Vsolid-state disk
p3959
aVSSD
p3960
aVelectronic disk
p3961
aVSolid State Disk
p3962
aVSolid state drive, SSD
p3963
asg8
Nsg9
I7366298
sg10
VSolid-state drive
p3964
sbsg9
I20677741
sg10
g3953
sbsVArtificial General Intelligence
p3965
(isrc.baseline_system.data.Page
Page
p3966
(dp3967
g4
I01
sg5
Nsg8
g2759
sg9
I8622732
sg10
g3965
sbsVMWC
p3968
(isrc.baseline_system.data.Page
Page
p3969
(dp3970
g4
I00
sg5
Nsg8
Nsg9
I5665541
sg10
g3968
sbsVLiquefied Natural Gas
p3971
(isrc.baseline_system.data.Page
Page
p3972
(dp3973
g4
I01
sg5
Nsg8
(isrc.baseline_system.data.Page
Page
p3974
(dp3975
g4
I00
sg5
(lp3976
VLNG
p3977
asg8
Nsg9
I832128
sg10
VLiquefied natural gas
p3978
sbsg9
I1993512
sg10
g3971
sbsVexecutive vice-president
p3979
(isrc.baseline_system.data.Page
Page
p3980
(dp3981
g4
I01
sg5
Nsg8
(isrc.baseline_system.data.Page
Page
p3982
(dp3983
g4
I00
sg5
(lp3984
Vvice-president
p3985
aVdirector
p3986
asg8
Nsg9
I52113
sg10
VVice president
p3987
sbsg9
I43319973
sg10
g3979
sbsVRob Arnolds Piece
p3988
(isrc.baseline_system.data.Page
Page
p3989
(dp3990
g4
I00
sg5
Nsg8
Nsg9
I0
sg10
g3988
sbsVAdvanced Cyber Threat Analytics
p3991
(isrc.baseline_system.data.Page
Page
p3992
(dp3993
g4
I00
sg5
Nsg8
Nsg9
I0
sg10
g3991
sbsVAML
p3994
(isrc.baseline_system.data.Page
Page
p3995
(dp3996
g4
I00
sg5
(lp3997
VAml
p3998
aVAML (disambiguation)
p3999
asg8
Nsg9
I611352
sg10
g3994
sbsVbusiness school talent
p4000
(isrc.baseline_system.data.Page
Page
p4001
(dp4002
g4
I00
sg5
Nsg8
Nsg9
I0
sg10
g4000
sbsVAMR
p4003
(isrc.baseline_system.data.Page
Page
p4004
(dp4005
g4
I00
sg5
Nsg8
Nsg9
I284927
sg10
g4003
sbsVpredictive threat intelligence
p4006
(isrc.baseline_system.data.Page
Page
p4007
(dp4008
g4
I00
sg5
Nsg8
Nsg9
I0
sg10
g4006
sbsVmultiple input channels
p4009
(isrc.baseline_system.data.Page
Page
p4010
(dp4011
g4
I00
sg5
Nsg8
Nsg9
I0
sg10
g4009
sbsVLatency Insensitive Software Package
p4012
(isrc.baseline_system.data.Page
Page
p4013
(dp4014
g4
I00
sg5
Nsg8
Nsg9
I0
sg10
g4012
sbsVVertical Search Engines
p4015
(isrc.baseline_system.data.Page
Page
p4016
(dp4017
g4
I00
sg5
Nsg8
Nsg9
I0
sg10
g4015
sbsVStandards Promote Adoption
p4018
(isrc.baseline_system.data.Page
Page
p4019
(dp4020
g4
I00
sg5
Nsg8
Nsg9
I0
sg10
g4018
sbsVUk Honours Degree
p4021
(isrc.baseline_system.data.Page
Page
p4022
(dp4023
g4
I00
sg5
Nsg8
Nsg9
I0
sg10
g4021
sbsVcontinuous glucose monitoring
p4024
(isrc.baseline_system.data.Page
Page
p4025
(dp4026
g4
I01
sg5
Nsg8
g3638
sg9
I49676462
sg10
g4024
sbsVrapid technological change
p4027
(isrc.baseline_system.data.Page
Page
p4028
(dp4029
g4
I00
sg5
Nsg8
Nsg9
I0
sg10
g4027
sbsg1317
g1315
sVIVA
p4030
(isrc.baseline_system.data.Page
Page
p4031
(dp4032
g4
I01
sg5
Nsg8
(isrc.baseline_system.data.Page
Page
p4033
(dp4034
g4
I00
sg5
Nsg8
Nsg9
I96402
sg10
VIva
p4035
sbsg9
I2489247
sg10
g4030
sbsVMDM
p4036
(isrc.baseline_system.data.Page
Page
p4037
(dp4038
g4
I00
sg5
Nsg8
Nsg9
I275535
sg10
g4036
sbsVsleep monitoring system
p4039
(isrc.baseline_system.data.Page
Page
p4040
(dp4041
g4
I00
sg5
Nsg8
Nsg9
I0
sg10
g4039
sbsVSpdr S&P Homebuilders
p4042
(isrc.baseline_system.data.Page
Page
p4043
(dp4044
g4
I00
sg5
Nsg8
Nsg9
I0
sg10
g4042
sbsVKiller Doubleshot Pro
p4045
(isrc.baseline_system.data.Page
Page
p4046
(dp4047
g4
I00
sg5
Nsg8
Nsg9
I0
sg10
g4045
sbsVIVR
p4048
(isrc.baseline_system.data.Page
Page
p4049
(dp4050
g4
I01
sg5
Nsg8
g2090
sg9
I162188
sg10
g4048
sbsVRos
p4051
(isrc.baseline_system.data.Page
Page
p4052
(dp4053
g4
I00
sg5
(lp4054
VROS
p4055
asg8
Nsg9
I971560
sg10
g4051
sbsVCompanys Sole Focus
p4056
(isrc.baseline_system.data.Page
Page
p4057
(dp4058
g4
I00
sg5
Nsg8
Nsg9
I0
sg10
g4056
sbsVEDMC
p4059
(isrc.baseline_system.data.Page
Page
p4060
(dp4061
g4
I01
sg5
Nsg8
g2908
sg9
I18211081
sg10
g4059
sbsVACE
p4062
(isrc.baseline_system.data.Page
Page
p4063
(dp4064
g4
I01
sg5
Nsg8
(isrc.baseline_system.data.Page
Page
p4065
(dp4066
g4
I00
sg5
Nsg8
Nsg9
I739670
sg10
VAce (disambiguation)
p4067
sbsg9
I335614
sg10
g4062
sbsVIBM cognitive solutions
p4068
(isrc.baseline_system.data.Page
Page
p4069
(dp4070
g4
I00
sg5
Nsg8
Nsg9
I0
sg10
g4068
sbsVACO
p4071
(isrc.baseline_system.data.Page
Page
p4072
(dp4073
g4
I01
sg5
Nsg8
(isrc.baseline_system.data.Page
Page
p4074
(dp4075
g4
I00
sg5
(lp4076
VACO
p4077
aVACO (disambiguation)
p4078
aVAco (disambiguation)
p4079
asg8
Nsg9
I1171970
sg10
VAco
p4080
sbsg9
I4067353
sg10
g4071
sbsVACM
p4081
(isrc.baseline_system.data.Page
Page
p4082
(dp4083
g4
I00
sg5
(lp4084
VA.C.M.
p4085
asg8
Nsg9
I12087414
sg10
g4081
sbsVTv Game Shows
p4086
(isrc.baseline_system.data.Page
Page
p4087
(dp4088
g4
I00
sg5
Nsg8
Nsg9
I0
sg10
g4086
sbsVACS
p4089
(isrc.baseline_system.data.Page
Page
p4090
(dp4091
g4
I00
sg5
Nsg8
Nsg9
I261048
sg10
g4089
sbsValbeit not undervalued
p4092
(isrc.baseline_system.data.Page
Page
p4093
(dp4094
g4
I00
sg5
Nsg8
Nsg9
I0
sg10
g4092
sbsVimportant digital movements
p4095
(isrc.baseline_system.data.Page
Page
p4096
(dp4097
g4
I00
sg5
Nsg8
Nsg9
I0
sg10
g4095
sbsVInfocomm Development Authority
p4098
(isrc.baseline_system.data.Page
Page
p4099
(dp4100
g4
I00
sg5
Nsg8
Nsg9
I0
sg10
g4098
sbsVproductivity cost savings
p4101
(isrc.baseline_system.data.Page
Page
p4102
(dp4103
g4
I00
sg5
Nsg8
Nsg9
I0
sg10
g4101
sbsVlead software engineer
p4104
(isrc.baseline_system.data.Page
Page
p4105
(dp4106
g4
I00
sg5
Nsg8
Nsg9
I0
sg10
g4104
sbsVImpaired Social Processing
p4107
(isrc.baseline_system.data.Page
Page
p4108
(dp4109
g4
I00
sg5
Nsg8
Nsg9
I0
sg10
g4107
sbsVReal-Time Bidding
p4110
(isrc.baseline_system.data.Page
Page
p4111
(dp4112
g4
I01
sg5
Nsg8
(isrc.baseline_system.data.Page
Page
p4113
(dp4114
g4
I00
sg5
Nsg8
Nsg9
I33812598
sg10
VReal-time bidding
p4115
sbsg9
I33813964
sg10
g4110
sbsVAirplane Health Management
p4116
(isrc.baseline_system.data.Page
Page
p4117
(dp4118
g4
I00
sg5
Nsg8
Nsg9
I0
sg10
g4116
sbsVInnovation Ii-38 Iot
p4119
(isrc.baseline_system.data.Page
Page
p4120
(dp4121
g4
I00
sg5
Nsg8
Nsg9
I0
sg10
g4119
sbsVLAWS
p4122
(isrc.baseline_system.data.Page
Page
p4123
(dp4124
g4
I01
sg5
Nsg8
(isrc.baseline_system.data.Page
Page
p4125
(dp4126
g4
I00
sg5
Nsg8
Nsg9
I374290
sg10
VLaw (disambiguation)
p4127
sbsg9
I51478236
sg10
g4122
sbsVEffective Communication Method
p4128
(isrc.baseline_system.data.Page
Page
p4129
(dp4130
g4
I00
sg5
Nsg8
Nsg9
I0
sg10
g4128
sbsVEnfields Many Strengths
p4131
(isrc.baseline_system.data.Page
Page
p4132
(dp4133
g4
I00
sg5
Nsg8
Nsg9
I0
sg10
g4131
sbsVAzure cloud services
p4134
(isrc.baseline_system.data.Page
Page
p4135
(dp4136
g4
I00
sg5
Nsg8
Nsg9
I0
sg10
g4134
sbsVdips
p4137
(isrc.baseline_system.data.Page
Page
p4138
(dp4139
g4
I01
sg5
Nsg8
g2715
sg9
I1305815
sg10
g4137
sbsg1446
g1444
sVAmaryllos Dynamic Peer
p4140
(isrc.baseline_system.data.Page
Page
p4141
(dp4142
g4
I00
sg5
Nsg8
Nsg9
I0
sg10
g4140
sbsVconvolutional neural net
p4143
(isrc.baseline_system.data.Page
Page
p4144
(dp4145
g4
I01
sg5
Nsg8
g2181
sg9
I53994709
sg10
g4143
sbsg3246
g3244
sVMEA
p4146
(isrc.baseline_system.data.Page
Page
p4147
(dp4148
g4
I00
sg5
Nsg8
Nsg9
I948677
sg10
g4146
sbsVPersonal Computer Market
p4149
(isrc.baseline_system.data.Page
Page
p4150
(dp4151
g4
I00
sg5
Nsg8
Nsg9
I0
sg10
g4149
sbsg713
g709
sg2023
g2018
sVMES
p4152
(isrc.baseline_system.data.Page
Page
p4153
(dp4154
g4
I00
sg5
Nsg8
Nsg9
I1510498
sg10
g4152
sbsg3586
g3584
sVDepartment Of Statistics
p4155
(isrc.baseline_system.data.Page
Page
p4156
(dp4157
g4
I00
sg5
Nsg8
Nsg9
I0
sg10
g4155
sbsVBaidu Log Service
p4158
(isrc.baseline_system.data.Page
Page
p4159
(dp4160
g4
I00
sg5
Nsg8
Nsg9
I0
sg10
g4158
sbsVIndustrial Internet Consortium
p4161
(isrc.baseline_system.data.Page
Page
p4162
(dp4163
g4
I00
sg5
Nsg8
Nsg9
I45261073
sg10
g4161
sbsVBritish Computer Society
p4164
(isrc.baseline_system.data.Page
Page
p4165
(dp4166
g4
I00
sg5
(lp4167
VBCS
p4168
asg8
Nsg9
I552656
sg10
g4164
sbsVHoly Horror Show
p4169
(isrc.baseline_system.data.Page
Page
p4170
(dp4171
g4
I00
sg5
Nsg8
Nsg9
I0
sg10
g4169
sbsVenterprise IoT technologies
p4172
(isrc.baseline_system.data.Page
Page
p4173
(dp4174
g4
I00
sg5
Nsg8
Nsg9
I0
sg10
g4172
sbsVGoogle Play store
p4175
(isrc.baseline_system.data.Page
Page
p4176
(dp4177
g4
I00
sg5
Nsg8
Nsg9
I0
sg10
g4175
sbsg74
g72
sVDetailed Product Roadmaps
p4178
(isrc.baseline_system.data.Page
Page
p4179
(dp4180
g4
I00
sg5
Nsg8
Nsg9
I0
sg10
g4178
sbsVVCs
p4181
(isrc.baseline_system.data.Page
Page
p4182
(dp4183
g4
I00
sg5
Nsg8
Nsg9
I0
sg10
g4181
sbsVchief medical officer
p4184
(isrc.baseline_system.data.Page
Page
p4185
(dp4186
g4
I01
sg5
Nsg8
(isrc.baseline_system.data.Page
Page
p4187
(dp4188
g4
I00
sg5
(lp4189
VCMO
p4190
asg8
Nsg9
I13324187
sg10
VChief Medical Officer
p4191
sbsg9
I6453024
sg10
g4184
sbsg1700
g1694
sVelectronic image stabilization
p4192
(isrc.baseline_system.data.Page
Page
p4193
(dp4194
g4
I00
sg5
Nsg8
Nsg9
I0
sg10
g4192
sbsVAutonomous Mobile Robotics
p4195
(isrc.baseline_system.data.Page
Page
p4196
(dp4197
g4
I00
sg5
Nsg8
Nsg9
I0
sg10
g4195
sbsVNicer Robotics laboratory
p4198
(isrc.baseline_system.data.Page
Page
p4199
(dp4200
g4
I00
sg5
Nsg8
Nsg9
I0
sg10
g4198
sbsVCAP
p4201
(isrc.baseline_system.data.Page
Page
p4202
(dp4203
g4
I00
sg5
Nsg8
Nsg9
I17366462
sg10
g4201
sbsVdata science teams
p4204
(isrc.baseline_system.data.Page
Page
p4205
(dp4206
g4
I00
sg5
Nsg8
Nsg9
I0
sg10
g4204
sbsVHHS
p4207
(isrc.baseline_system.data.Page
Page
p4208
(dp4209
g4
I00
sg5
Nsg8
Nsg9
I48325156
sg10
g4207
sbsVFacebook Inc. Ads
p4210
(isrc.baseline_system.data.Page
Page
p4211
(dp4212
g4
I00
sg5
Nsg8
Nsg9
I0
sg10
g4210
sbsVpersonal computer market
p4213
(isrc.baseline_system.data.Page
Page
p4214
(dp4215
g4
I00
sg5
Nsg8
Nsg9
I0
sg10
g4213
sbsVCPC
p4216
(isrc.baseline_system.data.Page
Page
p4217
(dp4218
g4
I00
sg5
Nsg8
Nsg9
I247855
sg10
g4216
sbsVCPE
p4219
(isrc.baseline_system.data.Page
Page
p4220
(dp4221
g4
I00
sg5
Nsg8
Nsg9
I739765
sg10
g4219
sbsVWLL
p4222
(isrc.baseline_system.data.Page
Page
p4223
(dp4224
g4
I00
sg5
Nsg8
Nsg9
I1390243
sg10
g4222
sbsVCPS
p4225
(isrc.baseline_system.data.Page
Page
p4226
(dp4227
g4
I00
sg5
Nsg8
Nsg9
I383068
sg10
g4225
sbsVcross country drive
p4228
(isrc.baseline_system.data.Page
Page
p4229
(dp4230
g4
I00
sg5
Nsg8
Nsg9
I0
sg10
g4228
sbsg192
g190
sVprogrammable logic components
p4231
(isrc.baseline_system.data.Page
Page
p4232
(dp4233
g4
I00
sg5
Nsg8
Nsg9
I0
sg10
g4231
sbsVUAE
p4234
(isrc.baseline_system.data.Page
Page
p4235
(dp4236
g4
I01
sg5
Nsg8
g3289
sg9
I1433347
sg10
g4234
sbsVEHS
p4237
(isrc.baseline_system.data.Page
Page
p4238
(dp4239
g4
I00
sg5
Nsg8
Nsg9
I1503267
sg10
g4237
sbsg3877
g3873
sVautonomous vehicle technology
p4240
(isrc.baseline_system.data.Page
Page
p4241
(dp4242
g4
I00
sg5
Nsg8
Nsg9
I0
sg10
g4240
sbsg874
g870
sVIndustrial control systems
p4243
(isrc.baseline_system.data.Page
Page
p4244
(dp4245
g4
I01
sg5
Nsg8
(isrc.baseline_system.data.Page
Page
p4246
(dp4247
g4
I00
sg5
(lp4248
VICS
p4249
asg8
Nsg9
I7333367
sg10
VIndustrial control system
p4250
sbsg9
I30454280
sg10
g4243
sbsVConvolutional Neural Network
p4251
(isrc.baseline_system.data.Page
Page
p4252
(dp4253
g4
I01
sg5
Nsg8
(isrc.baseline_system.data.Page
Page
p4254
(dp4255
g4
I00
sg5
(lp4256
VCNN
p4257
aVConvNet
p4258
aVConvolutional Nets
p4259
aVConvolutional Networks
p4260
aVConvolutional Network
p4261
aVConvolutional Neural Networks
p4262
aVConvolution Neural Network
p4263
asg8
Nsg9
I40409788
sg10
VConvolutional neural network
p4264
sbsg9
I49226959
sg10
g4251
sbsg441
g431
sVdata center growth
p4265
(isrc.baseline_system.data.Page
Page
p4266
(dp4267
g4
I00
sg5
Nsg8
Nsg9
I0
sg10
g4265
sbsVglobal climate change
p4268
(isrc.baseline_system.data.Page
Page
p4269
(dp4270
g4
I01
sg5
Nsg8
(isrc.baseline_system.data.Page
Page
p4271
(dp4272
g4
I00
sg5
Nsg8
Nsg9
I5042951
sg10
VGlobal warming
p4273
sbsg9
I69904
sg10
g4268
sbsVSupport Vector Machine
p4274
(isrc.baseline_system.data.Page
Page
p4275
(dp4276
g4
I01
sg5
Nsg8
g876
sg9
I90523
sg10
g4274
sbsVPalo Alto Networks
p4277
(isrc.baseline_system.data.Page
Page
p4278
(dp4279
g4
I00
sg5
(lp4280
VPalo Alto Networks, Inc.
p4281
asg8
Nsg9
I37486268
sg10
g4277
sbsg942
g940
sVSupport Vector Machines
p4282
(isrc.baseline_system.data.Page
Page
p4283
(dp4284
g4
I01
sg5
Nsg8
(isrc.baseline_system.data.Page
Page
p4285
(dp4286
g4
I00
sg5
(lp4287
Vsupport vector machine
p4288
aVSVM
p4289
asg8
Nsg9
I65309
sg10
VSupport vector machine
p4290
sbsg9
I10705052
sg10
g4282
sbsVBDC
p4291
(isrc.baseline_system.data.Page
Page
p4292
(dp4293
g4
I00
sg5
Nsg8
Nsg9
I878207
sg10
g4291
sbsg211
g204
sVlocation-based engagement software
p4294
(isrc.baseline_system.data.Page
Page
p4295
(dp4296
g4
I00
sg5
Nsg8
Nsg9
I0
sg10
g4294
sbsVFTC
p4297
(isrc.baseline_system.data.Page
Page
p4298
(dp4299
g4
I00
sg5
Nsg8
Nsg9
I214574
sg10
g4297
sbsVPAs
p4300
(isrc.baseline_system.data.Page
Page
p4301
(dp4302
g4
I00
sg5
Nsg8
Nsg9
I0
sg10
g4300
sbsVNetwork Video Recorder
p4303
(isrc.baseline_system.data.Page
Page
p4304
(dp4305
g4
I01
sg5
Nsg8
g1111
sg9
I47477326
sg10
g4303
sbsVMicrosoft Dynamics CRM
p4306
(isrc.baseline_system.data.Page
Page
p4307
(dp4308
g4
I00
sg5
Nsg8
Nsg9
I3909844
sg10
g4306
sbsVreal time bidding
p4309
(isrc.baseline_system.data.Page
Page
p4310
(dp4311
g4
I00
sg5
Nsg8
Nsg9
I0
sg10
g4309
sbsVTensor Processing Unit
p4312
(isrc.baseline_system.data.Page
Page
p4313
(dp4314
g4
I01
sg5
Nsg8
(isrc.baseline_system.data.Page
Page
p4315
(dp4316
g4
I00
sg5
(lp4317
VTPU
p4318
asg8
Nsg9
I50673241
sg10
VTensor processing unit
p4319
sbsg9
I50928431
sg10
g4312
sbsVAutonomous Vehicle Technologies
p4320
(isrc.baseline_system.data.Page
Page
p4321
(dp4322
g4
I00
sg5
Nsg8
Nsg9
I0
sg10
g4320
sbsVCBS
p4323
(isrc.baseline_system.data.Page
Page
p4324
(dp4325
g4
I00
sg5
(lp4326
VColumbia Broadcasting System
p4327
aVCBS Broadcasting Inc.
p4328
asg8
Nsg9
I37653
sg10
g4323
sbsVvoice codec synthesizers
p4329
(isrc.baseline_system.data.Page
Page
p4330
(dp4331
g4
I00
sg5
Nsg8
Nsg9
I0
sg10
g4329
sbsVVision Processor Units
p4332
(isrc.baseline_system.data.Page
Page
p4333
(dp4334
g4
I00
sg5
Nsg8
Nsg9
I0
sg10
g4332
sbsVvisionary innovation including
p4335
(isrc.baseline_system.data.Page
Page
p4336
(dp4337
g4
I00
sg5
Nsg8
Nsg9
I0
sg10
g4335
sbsVApplication Delivery Platform
p4338
(isrc.baseline_system.data.Page
Page
p4339
(dp4340
g4
I00
sg5
Nsg8
Nsg9
I0
sg10
g4338
sbsVSMS
p4341
(isrc.baseline_system.data.Page
Page
p4342
(dp4343
g4
I00
sg5
(lp4344
VSMS
p4345
asg8
Nsg9
I28207
sg10
g4341
sbsVAndroid-dominated smartphone range
p4346
(isrc.baseline_system.data.Page
Page
p4347
(dp4348
g4
I00
sg5
Nsg8
Nsg9
I0
sg10
g4346
sbsVFacebook Inc. ads
p4349
(isrc.baseline_system.data.Page
Page
p4350
(dp4351
g4
I00
sg5
Nsg8
Nsg9
I0
sg10
g4349
sbsVCyber Physical Systems
p4352
(isrc.baseline_system.data.Page
Page
p4353
(dp4354
g4
I00
sg5
Nsg8
Nsg9
I0
sg10
g4352
sbsg1712
g1710
sVIntelligent Virtual Assistants
p4355
(isrc.baseline_system.data.Page
Page
p4356
(dp4357
g4
I00
sg5
Nsg8
Nsg9
I0
sg10
g4355
sbsVtechnical capabilities orconstraints
p4358
(isrc.baseline_system.data.Page
Page
p4359
(dp4360
g4
I00
sg5
Nsg8
Nsg9
I0
sg10
g4358
sbsVMDC
p4361
(isrc.baseline_system.data.Page
Page
p4362
(dp4363
g4
I00
sg5
Nsg8
Nsg9
I196002
sg10
g4361
sbsVMDF
p4364
(isrc.baseline_system.data.Page
Page
p4365
(dp4366
g4
I00
sg5
Nsg8
Nsg9
I234879
sg10
g4364
sbsVChief operating officer
p4367
(isrc.baseline_system.data.Page
Page
p4368
(dp4369
g4
I00
sg5
(lp4370
VCOO
p4371
asg8
Nsg9
I343044
sg10
g4367
sbsVChan Zuckerberg Initiative
p4372
(isrc.baseline_system.data.Page
Page
p4373
(dp4374
g4
I00
sg5
(lp4375
VCZI
p4376
asg8
Nsg9
I48713464
sg10
g4372
sbsVTelecommunication Development Industry Alliance
p4377
(isrc.baseline_system.data.Page
Page
p4378
(dp4379
g4
I00
sg5
Nsg8
Nsg9
I0
sg10
g4377
sbsVpowerful and innovative
p4380
(isrc.baseline_system.data.Page
Page
p4381
(dp4382
g4
I00
sg5
Nsg8
Nsg9
I0
sg10
g4380
sbsVeffective communication method
p4383
(isrc.baseline_system.data.Page
Page
p4384
(dp4385
g4
I00
sg5
Nsg8
Nsg9
I0
sg10
g4383
sbsVAnalyse Driving Patterns
p4386
(isrc.baseline_system.data.Page
Page
p4387
(dp4388
g4
I00
sg5
Nsg8
Nsg9
I0
sg10
g4386
sbsViii
p4389
(isrc.baseline_system.data.Page
Page
p4390
(dp4391
g4
I00
sg5
Nsg8
Nsg9
I0
sg10
g4389
sbsVTransition Authorization Act
p4392
(isrc.baseline_system.data.Page
Page
p4393
(dp4394
g4
I00
sg5
Nsg8
Nsg9
I0
sg10
g4392
sbsVcognitive machine learning
p4395
(isrc.baseline_system.data.Page
Page
p4396
(dp4397
g4
I00
sg5
Nsg8
Nsg9
I0
sg10
g4395
sbsVOpen Compute Project
p4398
(isrc.baseline_system.data.Page
Page
p4399
(dp4400
g4
I00
sg5
Nsg8
Nsg9
I31547791
sg10
g4398
sbsVmobile and searching
p4401
(isrc.baseline_system.data.Page
Page
p4402
(dp4403
g4
I00
sg5
Nsg8
Nsg9
I0
sg10
g4401
sbsVEnfields many strengths
p4404
(isrc.baseline_system.data.Page
Page
p4405
(dp4406
g4
I00
sg5
Nsg8
Nsg9
I0
sg10
g4404
sbsVIbm Studios Singapore
p4407
(isrc.baseline_system.data.Page
Page
p4408
(dp4409
g4
I00
sg5
Nsg8
Nsg9
I0
sg10
g4407
sbsg2106
g2100
sVTOC
p4410
(isrc.baseline_system.data.Page
Page
p4411
(dp4412
g4
I00
sg5
Nsg8
Nsg9
I284172
sg10
g4410
sbsVBusiness Process Reengineering
p4413
(isrc.baseline_system.data.Page
Page
p4414
(dp4415
g4
I01
sg5
Nsg8
g508
sg9
I2062621
sg10
g4413
sbsVChannel State Information
p4416
(isrc.baseline_system.data.Page
Page
p4417
(dp4418
g4
I00
sg5
Nsg8
Nsg9
I0
sg10
g4416
sbsVDeepMind artificial intelligence
p4419
(isrc.baseline_system.data.Page
Page
p4420
(dp4421
g4
I00
sg5
Nsg8
Nsg9
I0
sg10
g4419
sbsVNHL
p4422
(isrc.baseline_system.data.Page
Page
p4423
(dp4424
g4
I01
sg5
Nsg8
g690
sg9
I21808
sg10
g4422
sbsVliquid crystal display
p4425
(isrc.baseline_system.data.Page
Page
p4426
(dp4427
g4
I01
sg5
Nsg8
(isrc.baseline_system.data.Page
Page
p4428
(dp4429
g4
I00
sg5
(lp4430
VLCD
p4431
asg8
Nsg9
I17932
sg10
VLiquid-crystal display
p4432
sbsg9
I38944909
sg10
g4425
sbsVMarket Accessible Services
p4433
(isrc.baseline_system.data.Page
Page
p4434
(dp4435
g4
I00
sg5
Nsg8
Nsg9
I0
sg10
g4433
sbsVsoftware-defined storage
p4436
(isrc.baseline_system.data.Page
Page
p4437
(dp4438
g4
I00
sg5
Nsg8
Nsg9
I36776993
sg10
g4436
sbsVHewlett Packard Company
p4439
(isrc.baseline_system.data.Page
Page
p4440
(dp4441
g4
I01
sg5
Nsg8
g3105
sg9
I4191752
sg10
g4439
sbsVTranslational Research Unit
p4442
(isrc.baseline_system.data.Page
Page
p4443
(dp4444
g4
I00
sg5
Nsg8
Nsg9
I0
sg10
g4442
sbsVABI
p4445
(isrc.baseline_system.data.Page
Page
p4446
(dp4447
g4
I00
sg5
(lp4448
VABI (disambiguation)
p4449
asg8
Nsg9
I60470
sg10
g4445
sbsVApplication delivery platform
p4450
(isrc.baseline_system.data.Page
Page
p4451
(dp4452
g4
I00
sg5
Nsg8
Nsg9
I0
sg10
g4450
sbsVSentient Dust Storms
p4453
(isrc.baseline_system.data.Page
Page
p4454
(dp4455
g4
I00
sg5
Nsg8
Nsg9
I0
sg10
g4453
sbsg2222
g2220
sVGrand Theft Auto
p4456
(isrc.baseline_system.data.Page
Page
p4457
(dp4458
g4
I00
sg5
(lp4459
VGTA
p4460
asg8
Nsg9
I1355448
sg10
g4456
sbsVAlms Consulting Magazine
p4461
(isrc.baseline_system.data.Page
Page
p4462
(dp4463
g4
I00
sg5
Nsg8
Nsg9
I0
sg10
g4461
sbsVPoetics Of Commemoration
p4464
(isrc.baseline_system.data.Page
Page
p4465
(dp4466
g4
I00
sg5
Nsg8
Nsg9
I0
sg10
g4464
sbsVWER
p4467
(isrc.baseline_system.data.Page
Page
p4468
(dp4469
g4
I00
sg5
Nsg8
Nsg9
I5544850
sg10
g4467
sbsVcustomer service reps
p4470
(isrc.baseline_system.data.Page
Page
p4471
(dp4472
g4
I00
sg5
Nsg8
Nsg9
I0
sg10
g4470
sbsVStreaming Video Giant
p4473
(isrc.baseline_system.data.Page
Page
p4474
(dp4475
g4
I00
sg5
Nsg8
Nsg9
I0
sg10
g4473
sbsVEnterprise Data Sources
p4476
(isrc.baseline_system.data.Page
Page
p4477
(dp4478
g4
I00
sg5
Nsg8
Nsg9
I0
sg10
g4476
sbsVchief accounting officer
p4479
(isrc.baseline_system.data.Page
Page
p4480
(dp4481
g4
I01
sg5
Nsg8
g2900
sg9
I3671237
sg10
g4479
sbsVcool VR games
p4482
(isrc.baseline_system.data.Page
Page
p4483
(dp4484
g4
I00
sg5
Nsg8
Nsg9
I0
sg10
g4482
sbsVGraphics Processor Unit
p4485
(isrc.baseline_system.data.Page
Page
p4486
(dp4487
g4
I00
sg5
Nsg8
Nsg9
I0
sg10
g4485
sbsg4127
g4125
sVconvolutional neural network
p4488
(isrc.baseline_system.data.Page
Page
p4489
(dp4490
g4
I00
sg5
(lp4491
VCNN
p4492
aVConvNet
p4493
aVConvolutional Nets
p4494
aVConvolutional Networks
p4495
aVConvolutional Network
p4496
aVConvolutional Neural Networks
p4497
aVConvolution Neural Network
p4498
asg8
Nsg9
I40409788
sg10
g4488
sbsVAccelerated-Roi Offerings
p4499
(isrc.baseline_system.data.Page
Page
p4500
(dp4501
g4
I00
sg5
Nsg8
Nsg9
I0
sg10
g4499
sbsVChief Operation Officer
p4502
(isrc.baseline_system.data.Page
Page
p4503
(dp4504
g4
I00
sg5
Nsg8
Nsg9
I0
sg10
g4502
sbsVUnstructured Data Processing
p4505
(isrc.baseline_system.data.Page
Page
p4506
(dp4507
g4
I00
sg5
Nsg8
Nsg9
I0
sg10
g4505
sbsVEnterprise Specific Protection
p4508
(isrc.baseline_system.data.Page
Page
p4509
(dp4510
g4
I00
sg5
Nsg8
Nsg9
I0
sg10
g4508
sbsVLicensed Zapthink Architect
p4511
(isrc.baseline_system.data.Page
Page
p4512
(dp4513
g4
I00
sg5
Nsg8
Nsg9
I0
sg10
g4511
sbsVDecision Support Systems
p4514
(isrc.baseline_system.data.Page
Page
p4515
(dp4516
g4
I01
sg5
Nsg8
(isrc.baseline_system.data.Page
Page
p4517
(dp4518
g4
I00
sg5
(lp4519
Vdecision support systems
p4520
aVDSS
p4521
asg8
Nsg9
I469578
sg10
VDecision support system
p4522
sbsg9
I2371158
sg10
g4514
sbsVPaschall Truck Lines
p4523
(isrc.baseline_system.data.Page
Page
p4524
(dp4525
g4
I00
sg5
Nsg8
Nsg9
I0
sg10
g4523
sbsVexecutive vice president
p4526
(isrc.baseline_system.data.Page
Page
p4527
(dp4528
g4
I01
sg5
Nsg8
(isrc.baseline_system.data.Page
Page
p4529
(dp4530
g4
I00
sg5
(lp4531
Vvice-president
p4532
aVdirector
p4533
asg8
Nsg9
I52113
sg10
VVice president
p4534
sbsg9
I10811527
sg10
g4526
sbsVEconomic Reform Plan
p4535
(isrc.baseline_system.data.Page
Page
p4536
(dp4537
g4
I00
sg5
Nsg8
Nsg9
I0
sg10
g4535
sbsVIbm
p4538
(isrc.baseline_system.data.Page
Page
p4539
(dp4540
g4
I01
sg5
Nsg8
g3139
sg9
I2338878
sg10
g4538
sbsg2270
g2268
sVTaiwan Semiconductor Manufacturing Company
p4541
(isrc.baseline_system.data.Page
Page
p4542
(dp4543
g4
I01
sg5
Nsg8
(isrc.baseline_system.data.Page
Page
p4544
(dp4545
g4
I00
sg5
(lp4546
VTaiwan Semiconductor Manufacturing Corporation
p4547
aVTaiwan Semiconductor Co., Ltd.
p4548
asg8
Nsg9
I463574
sg10
VTSMC
p4549
sbsg9
I464642
sg10
g4541
sbsg3159
g3157
sVAutism Spectrum Disorder
p4550
(isrc.baseline_system.data.Page
Page
p4551
(dp4552
g4
I01
sg5
Nsg8
(isrc.baseline_system.data.Page
Page
p4553
(dp4554
g4
I00
sg5
(lp4555
Vautism spectrum disorders
p4556
asg8
Nsg9
I29113700
sg10
VAutism spectrum
p4557
sbsg9
I1841054
sg10
g4550
sbsVPlenty Computer Scientists
p4558
(isrc.baseline_system.data.Page
Page
p4559
(dp4560
g4
I00
sg5
Nsg8
Nsg9
I0
sg10
g4558
sbsVclimate change deniers
p4561
(isrc.baseline_system.data.Page
Page
p4562
(dp4563
g4
I00
sg5
Nsg8
Nsg9
I0
sg10
g4561
sbsVTokyo Game Show
p4564
(isrc.baseline_system.data.Page
Page
p4565
(dp4566
g4
I00
sg5
(lp4567
VTGS
p4568
asg8
Nsg9
I1021157
sg10
g4564
sbsg34
g30
sVIntelligent Communication Technologies
p4569
(isrc.baseline_system.data.Page
Page
p4570
(dp4571
g4
I00
sg5
Nsg8
Nsg9
I0
sg10
g4569
sbsVunstructured health data
p4572
(isrc.baseline_system.data.Page
Page
p4573
(dp4574
g4
I00
sg5
Nsg8
Nsg9
I0
sg10
g4572
sbsg1503
g1492
sg2751
g2746
sVEnd Information Technology
p4575
(isrc.baseline_system.data.Page
Page
p4576
(dp4577
g4
I00
sg5
Nsg8
Nsg9
I0
sg10
g4575
sbsVproof application images
p4578
(isrc.baseline_system.data.Page
Page
p4579
(dp4580
g4
I00
sg5
Nsg8
Nsg9
I0
sg10
g4578
sbsVIFG
p4581
(isrc.baseline_system.data.Page
Page
p4582
(dp4583
g4
I00
sg5
Nsg8
Nsg9
I1170677
sg10
g4581
sbsVConsistent Storage
p4584
(isrc.baseline_system.data.Page
Page
p4585
(dp4586
g4
I00
sg5
Nsg8
Nsg9
I0
sg10
g4584
sbsVOCR
p4587
(isrc.baseline_system.data.Page
Page
p4588
(dp4589
g4
I00
sg5
Nsg8
Nsg9
I22653
sg10
g4587
sbsVCED
p4590
(isrc.baseline_system.data.Page
Page
p4591
(dp4592
g4
I00
sg5
Nsg8
Nsg9
I1307743
sg10
g4590
sbsVCEA
p4593
(isrc.baseline_system.data.Page
Page
p4594
(dp4595
g4
I01
sg5
Nsg8
g3379
sg9
I273545
sg10
g4593
sbsVentertainment
p4596
(isrc.baseline_system.data.Page
Page
p4597
(dp4598
g4
I00
sg5
(lp4599
VEntertainment Film Distributors
p4600
asg8
Nsg9
I9262
sg10
g4596
sbsVCEO
p4601
(isrc.baseline_system.data.Page
Page
p4602
(dp4603
g4
I01
sg5
Nsg8
g1395
sg9
I5680
sg10
g4601
sbsVAdvanced machine learning
p4604
(isrc.baseline_system.data.Page
Page
p4605
(dp4606
g4
I00
sg5
Nsg8
Nsg9
I0
sg10
g4604
sbsVCES
p4607
(isrc.baseline_system.data.Page
Page
p4608
(dp4609
g4
I00
sg5
Nsg8
Nsg9
I273547
sg10
g4607
sbsVIbm Cloud Tools
p4610
(isrc.baseline_system.data.Page
Page
p4611
(dp4612
g4
I00
sg5
Nsg8
Nsg9
I0
sg10
g4610
sbsVUc San Diego
p4613
(isrc.baseline_system.data.Page
Page
p4614
(dp4615
g4
I01
sg5
Nsg8
(isrc.baseline_system.data.Page
Page
p4616
(dp4617
g4
I00
sg5
(lp4618
VUCSD
p4619
aVUC San Diego
p4620
asg8
Nsg9
I31927
sg10
VUniversity of California, San Diego
p4621
sbsg9
I34374297
sg10
g4613
sbsVMassachusetts General Hospital
p4622
(isrc.baseline_system.data.Page
Page
p4623
(dp4624
g4
I00
sg5
(lp4625
VMass General
p4626
aVMGH
p4627
asg8
Nsg9
I1149900
sg10
g4622
sbsVclients single-point access
p4628
(isrc.baseline_system.data.Page
Page
p4629
(dp4630
g4
I00
sg5
Nsg8
Nsg9
I0
sg10
g4628
sbsVCSI
p4631
(isrc.baseline_system.data.Page
Page
p4632
(dp4633
g4
I00
sg5
Nsg8
Nsg9
I324041
sg10
g4631
sbsVDWTC
p4634
(isrc.baseline_system.data.Page
Page
p4635
(dp4636
g4
I00
sg5
Nsg8
Nsg9
I0
sg10
g4634
sbsVCSF
p4637
(isrc.baseline_system.data.Page
Page
p4638
(dp4639
g4
I00
sg5
Nsg8
Nsg9
I537924
sg10
g4637
sbsVCSA
p4640
(isrc.baseline_system.data.Page
Page
p4641
(dp4642
g4
I00
sg5
Nsg8
Nsg9
I148647
sg10
g4640
sbsg1579
g1575
sVPennsylvania State University
p4643
(isrc.baseline_system.data.Page
Page
p4644
(dp4645
g4
I00
sg5
(lp4646
VPenn State
p4647
aVPSU
p4648
aVPenn State University
p4649
asg8
Nsg9
I1209509
sg10
g4643
sbsVCGM
p4650
(isrc.baseline_system.data.Page
Page
p4651
(dp4652
g4
I00
sg5
Nsg8
Nsg9
I2678120
sg10
g4650
sbsVCSS
p4653
(isrc.baseline_system.data.Page
Page
p4654
(dp4655
g4
I01
sg5
Nsg8
g1287
sg9
I9176510
sg10
g4653
sbsVMedia Resource Function
p4656
(isrc.baseline_system.data.Page
Page
p4657
(dp4658
g4
I01
sg5
Nsg8
(isrc.baseline_system.data.Page
Page
p4659
(dp4660
g4
I00
sg5
Nsg8
Nsg9
I1152833
sg10
VIP Multimedia Subsystem
p4661
sbsg9
I52261216
sg10
g4656
sbsVTata Motors TTM
p4662
(isrc.baseline_system.data.Page
Page
p4663
(dp4664
g4
I00
sg5
Nsg8
Nsg9
I0
sg10
g4662
sbsVProtected Health Information
p4665
(isrc.baseline_system.data.Page
Page
p4666
(dp4667
g4
I01
sg5
Nsg8
g2000
sg9
I11983376
sg10
g4665
sbsVchief marketing officers
p4668
(isrc.baseline_system.data.Page
Page
p4669
(dp4670
g4
I00
sg5
Nsg8
Nsg9
I0
sg10
g4668
sbsVGoogle Algorithmic Shiftscanbe
p4671
(isrc.baseline_system.data.Page
Page
p4672
(dp4673
g4
I00
sg5
Nsg8
Nsg9
I0
sg10
g4671
sbsVNanolog Streaming Service
p4674
(isrc.baseline_system.data.Page
Page
p4675
(dp4676
g4
I00
sg5
Nsg8
Nsg9
I0
sg10
g4674
sbsVASR
p4677
(isrc.baseline_system.data.Page
Page
p4678
(dp4679
g4
I00
sg5
(lp4680
VASR (disambiguation)
p4681
asg8
Nsg9
I1194999
sg10
g4677
sbsVSauce Labs
p4682
(isrc.baseline_system.data.Page
Page
p4683
(dp4684
g4
I00
sg5
Nsg8
Nsg9
I27425506
sg10
g4682
sbsVExecutive Vice Presient
p4685
(isrc.baseline_system.data.Page
Page
p4686
(dp4687
g4
I00
sg5
Nsg8
Nsg9
I0
sg10
g4685
sbsVASD
p4688
(isrc.baseline_system.data.Page
Page
p4689
(dp4690
g4
I00
sg5
Nsg8
Nsg9
I938908
sg10
g4688
sbsVPresentation of Information
p4691
(isrc.baseline_system.data.Page
Page
p4692
(dp4693
g4
I00
sg5
Nsg8
Nsg9
I0
sg10
g4691
sbsVTop Oracle Customers
p4694
(isrc.baseline_system.data.Page
Page
p4695
(dp4696
g4
I00
sg5
Nsg8
Nsg9
I0
sg10
g4694
sbsVmobile ECM app
p4697
(isrc.baseline_system.data.Page
Page
p4698
(dp4699
g4
I00
sg5
Nsg8
Nsg9
I0
sg10
g4697
sbsVFuture Cloud Talent
p4700
(isrc.baseline_system.data.Page
Page
p4701
(dp4702
g4
I00
sg5
Nsg8
Nsg9
I0
sg10
g4700
sbsVcomprehensive booking system
p4703
(isrc.baseline_system.data.Page
Page
p4704
(dp4705
g4
I00
sg5
Nsg8
Nsg9
I0
sg10
g4703
sbsVPredictive Threat Intelligence
p4706
(isrc.baseline_system.data.Page
Page
p4707
(dp4708
g4
I00
sg5
Nsg8
Nsg9
I0
sg10
g4706
sbsVmarket accessible services
p4709
(isrc.baseline_system.data.Page
Page
p4710
(dp4711
g4
I00
sg5
Nsg8
Nsg9
I0
sg10
g4709
sbsVSSG
p4712
(isrc.baseline_system.data.Page
Page
p4713
(dp4714
g4
I00
sg5
Nsg8
Nsg9
I1787912
sg10
g4712
sbsVBloombergs Monte Reel
p4715
(isrc.baseline_system.data.Page
Page
p4716
(dp4717
g4
I00
sg5
Nsg8
Nsg9
I0
sg10
g4715
sbsVanalyse driving patterns
p4718
(isrc.baseline_system.data.Page
Page
p4719
(dp4720
g4
I00
sg5
Nsg8
Nsg9
I0
sg10
g4718
sbsVSouth Africa-Born Entrepreneur
p4721
(isrc.baseline_system.data.Page
Page
p4722
(dp4723
g4
I00
sg5
Nsg8
Nsg9
I0
sg10
g4721
sbsVITU
p4724
(isrc.baseline_system.data.Page
Page
p4725
(dp4726
g4
I01
sg5
Nsg8
g3608
sg9
I10689304
sg10
g4724
sbsVSensorias Smart Garments
p4727
(isrc.baseline_system.data.Page
Page
p4728
(dp4729
g4
I00
sg5
Nsg8
Nsg9
I0
sg10
g4727
sbsVadvanced visual effects
p4730
(isrc.baseline_system.data.Page
Page
p4731
(dp4732
g4
I00
sg5
Nsg8
Nsg9
I0
sg10
g4730
sbsVRobotics Process Automation
p4733
(isrc.baseline_system.data.Page
Page
p4734
(dp4735
g4
I00
sg5
Nsg8
Nsg9
I0
sg10
g4733
sbsVstrategic alliance formation
p4736
(isrc.baseline_system.data.Page
Page
p4737
(dp4738
g4
I00
sg5
Nsg8
Nsg9
I0
sg10
g4736
sbsVfeature-rich
p4739
(isrc.baseline_system.data.Page
Page
p4740
(dp4741
g4
I01
sg5
Nsg8
g1753
sg9
I20902044
sg10
g4739
sbsg827
g825
sVChief Information Officers
p4742
(isrc.baseline_system.data.Page
Page
p4743
(dp4744
g4
I00
sg5
Nsg8
Nsg9
I0
sg10
g4742
sbsg836
g834
sVUnified Security Management
p4745
(isrc.baseline_system.data.Page
Page
p4746
(dp4747
g4
I00
sg5
Nsg8
Nsg9
I0
sg10
g4745
sbsVchallenge probably calls
p4748
(isrc.baseline_system.data.Page
Page
p4749
(dp4750
g4
I00
sg5
Nsg8
Nsg9
I0
sg10
g4748
sbsVSaaS Enablement Framework
p4751
(isrc.baseline_system.data.Page
Page
p4752
(dp4753
g4
I00
sg5
Nsg8
Nsg9
I0
sg10
g4751
sbsVirritating conversation starter
p4754
(isrc.baseline_system.data.Page
Page
p4755
(dp4756
g4
I00
sg5
Nsg8
Nsg9
I0
sg10
g4754
sbsVMobile Engagement Services
p4757
(isrc.baseline_system.data.Page
Page
p4758
(dp4759
g4
I00
sg5
Nsg8
Nsg9
I0
sg10
g4757
sbsVentire smartphone lifecycle
p4760
(isrc.baseline_system.data.Page
Page
p4761
(dp4762
g4
I00
sg5
Nsg8
Nsg9
I0
sg10
g4760
sbsVUltra High Definition
p4763
(isrc.baseline_system.data.Page
Page
p4764
(dp4765
g4
I01
sg5
Nsg8
(isrc.baseline_system.data.Page
Page
p4766
(dp4767
g4
I00
sg5
(lp4768
VUHDTV
p4769
aVUltra HD television
p4770
aVSuper Hi-Vision
p4771
aVUHD
p4772
aV8K Ultra HDTV
p4773
aV8K UHDTV
p4774
aV8K UHD
p4775
asg8
Nsg9
I47262026
sg10
VUltra-high-definition television
p4776
sbsg9
I55823345
sg10
g4763
sbsVFacebooks Airesearch Team
p4777
(isrc.baseline_system.data.Page
Page
p4778
(dp4779
g4
I00
sg5
Nsg8
Nsg9
I0
sg10
g4777
sbsVSacha Inchi protein
p4780
(isrc.baseline_system.data.Page
Page
p4781
(dp4782
g4
I00
sg5
Nsg8
Nsg9
I0
sg10
g4780
sbsVNatural Human Language
p4783
(isrc.baseline_system.data.Page
Page
p4784
(dp4785
g4
I00
sg5
Nsg8
Nsg9
I0
sg10
g4783
sbsVdigital investment platform
p4786
(isrc.baseline_system.data.Page
Page
p4787
(dp4788
g4
I00
sg5
Nsg8
Nsg9
I0
sg10
g4786
sbsVInane
p4789
(isrc.baseline_system.data.Page
Page
p4790
(dp4791
g4
I00
sg5
Nsg8
Nsg9
I46651814
sg10
g4789
sbsVPoC
p4792
(isrc.baseline_system.data.Page
Page
p4793
(dp4794
g4
I01
sg5
Nsg8
g788
sg9
I1103061
sg10
g4792
sbsVcurrent Android phones
p4795
(isrc.baseline_system.data.Page
Page
p4796
(dp4797
g4
I00
sg5
Nsg8
Nsg9
I0
sg10
g4795
sbsVMCM
p4798
(isrc.baseline_system.data.Page
Page
p4799
(dp4800
g4
I00
sg5
Nsg8
Nsg9
I1983531
sg10
g4798
sbsVpersonal communications services
p4801
(isrc.baseline_system.data.Page
Page
p4802
(dp4803
g4
I01
sg5
Nsg8
(isrc.baseline_system.data.Page
Page
p4804
(dp4805
g4
I00
sg5
Nsg8
Nsg9
I24808
sg10
VPersonal Communications Service
p4806
sbsg9
I11303967
sg10
g4801
sbsVcomputer security stack
p4807
(isrc.baseline_system.data.Page
Page
p4808
(dp4809
g4
I00
sg5
Nsg8
Nsg9
I0
sg10
g4807
sbsVMCA
p4810
(isrc.baseline_system.data.Page
Page
p4811
(dp4812
g4
I00
sg5
Nsg8
Nsg9
I19971
sg10
g4810
sbsVReal Time Kinematics
p4813
(isrc.baseline_system.data.Page
Page
p4814
(dp4815
g4
I00
sg5
Nsg8
Nsg9
I0
sg10
g4813
sbsg3925
g3923
sVinane
p4816
(isrc.baseline_system.data.Page
Page
p4817
(dp4818
g4
I00
sg5
Nsg8
Nsg9
I46651814
sg10
g4816
sbsVservice-level agreements
p4819
(isrc.baseline_system.data.Page
Page
p4820
(dp4821
g4
I01
sg5
Nsg8
(isrc.baseline_system.data.Page
Page
p4822
(dp4823
g4
I00
sg5
(lp4824
VSLA
p4825
asg8
Nsg9
I775021
sg10
VService-level agreement
p4826
sbsg9
I42371212
sg10
g4819
sbsVpower customer service
p4827
(isrc.baseline_system.data.Page
Page
p4828
(dp4829
g4
I00
sg5
Nsg8
Nsg9
I0
sg10
g4827
sbsVPersonal Communications Services
p4830
(isrc.baseline_system.data.Page
Page
p4831
(dp4832
g4
I01
sg5
Nsg8
(isrc.baseline_system.data.Page
Page
p4833
(dp4834
g4
I00
sg5
Nsg8
Nsg9
I24808
sg10
VPersonal Communications Service
p4835
sbsg9
I237038
sg10
g4830
sbsVEquity Derivatives Revenues
p4836
(isrc.baseline_system.data.Page
Page
p4837
(dp4838
g4
I00
sg5
Nsg8
Nsg9
I0
sg10
g4836
sbsVVisual Computing Applications
p4839
(isrc.baseline_system.data.Page
Page
p4840
(dp4841
g4
I00
sg5
Nsg8
Nsg9
I0
sg10
g4839
sbsVlargest individual employer
p4842
(isrc.baseline_system.data.Page
Page
p4843
(dp4844
g4
I00
sg5
Nsg8
Nsg9
I0
sg10
g4842
sbsVproduct life cycle/management
p4845
(isrc.baseline_system.data.Page
Page
p4846
(dp4847
g4
I00
sg5
Nsg8
Nsg9
I0
sg10
g4845
sbsVVNF
p4848
(isrc.baseline_system.data.Page
Page
p4849
(dp4850
g4
I00
sg5
Nsg8
Nsg9
I19991307
sg10
g4848
sbsVend information technology
p4851
(isrc.baseline_system.data.Page
Page
p4852
(dp4853
g4
I00
sg5
Nsg8
Nsg9
I0
sg10
g4851
sbsVService Activation Fees
p4854
(isrc.baseline_system.data.Page
Page
p4855
(dp4856
g4
I00
sg5
Nsg8
Nsg9
I0
sg10
g4854
sbsVDecision support systems
p4857
(isrc.baseline_system.data.Page
Page
p4858
(dp4859
g4
I01
sg5
Nsg8
(isrc.baseline_system.data.Page
Page
p4860
(dp4861
g4
I00
sg5
(lp4862
Vdecision support systems
p4863
aVDSS
p4864
asg8
Nsg9
I469578
sg10
VDecision support system
p4865
sbsg9
I690545
sg10
g4857
sbsVPeter Thiel-Backed Company
p4866
(isrc.baseline_system.data.Page
Page
p4867
(dp4868
g4
I00
sg5
Nsg8
Nsg9
I0
sg10
g4866
sbsVCool Selection Shortcut
p4869
(isrc.baseline_system.data.Page
Page
p4870
(dp4871
g4
I00
sg5
Nsg8
Nsg9
I0
sg10
g4869
sbsVTV game show
p4872
(isrc.baseline_system.data.Page
Page
p4873
(dp4874
g4
I00
sg5
Nsg8
Nsg9
I0
sg10
g4872
sbsVGPU
p4875
(isrc.baseline_system.data.Page
Page
p4876
(dp4877
g4
I01
sg5
Nsg8
g2425
sg9
I53053
sg10
g4875
sbsVGPS
p4878
(isrc.baseline_system.data.Page
Page
p4879
(dp4880
g4
I01
sg5
Nsg8
g803
sg9
I1456744
sg10
g4878
sbsVIdentity Management Service
p4881
(isrc.baseline_system.data.Page
Page
p4882
(dp4883
g4
I00
sg5
Nsg8
Nsg9
I0
sg10
g4881
sbsVBasic Augmented Reality
p4884
(isrc.baseline_system.data.Page
Page
p4885
(dp4886
g4
I00
sg5
Nsg8
Nsg9
I0
sg10
g4884
sbsVWindows IT Pro
p4887
(isrc.baseline_system.data.Page
Page
p4888
(dp4889
g4
I00
sg5
Nsg8
Nsg9
I13421911
sg10
g4887
sbsVMoving Average Convergence Divergence
p4890
(isrc.baseline_system.data.Page
Page
p4891
(dp4892
g4
I00
sg5
Nsg8
Nsg9
I0
sg10
g4890
sbsVData Science Teams
p4893
(isrc.baseline_system.data.Page
Page
p4894
(dp4895
g4
I00
sg5
Nsg8
Nsg9
I0
sg10
g4893
sbsVIntel Developer Forum
p4896
(isrc.baseline_system.data.Page
Page
p4897
(dp4898
g4
I00
sg5
(lp4899
VIDF, Intel Developer Forum
p4900
asg8
Nsg9
I627096
sg10
g4896
sbsVDigital Signal Processors
p4901
(isrc.baseline_system.data.Page
Page
p4902
(dp4903
g4
I00
sg5
Nsg8
Nsg9
I0
sg10
g4901
sbsVIntel Ai Chips
p4904
(isrc.baseline_system.data.Page
Page
p4905
(dp4906
g4
I00
sg5
Nsg8
Nsg9
I0
sg10
g4904
sbsVCRM
p4907
(isrc.baseline_system.data.Page
Page
p4908
(dp4909
g4
I00
sg5
Nsg8
Nsg9
I43123011
sg10
g4907
sbsVInternet service providers
p4910
(isrc.baseline_system.data.Page
Page
p4911
(dp4912
g4
I01
sg5
Nsg8
(isrc.baseline_system.data.Page
Page
p4913
(dp4914
g4
I00
sg5
(lp4915
VISP
p4916
asg8
Nsg9
I100245
sg10
VInternet service provider
p4917
sbsg9
I508064
sg10
g4910
sbsVStrategic Alliance Formation
p4918
(isrc.baseline_system.data.Page
Page
p4919
(dp4920
g4
I00
sg5
Nsg8
Nsg9
I0
sg10
g4918
sbsVnatural-language-processing
p4921
(isrc.baseline_system.data.Page
Page
p4922
(dp4923
g4
I00
sg5
Nsg8
Nsg9
I0
sg10
g4921
sbsVEdward Snowdens Long
p4924
(isrc.baseline_system.data.Page
Page
p4925
(dp4926
g4
I00
sg5
Nsg8
Nsg9
I0
sg10
g4924
sbsVsocial and emotional
p4927
(isrc.baseline_system.data.Page
Page
p4928
(dp4929
g4
I00
sg5
Nsg8
Nsg9
I0
sg10
g4927
sbsVPty
p4930
(isrc.baseline_system.data.Page
Page
p4931
(dp4932
g4
I00
sg5
Nsg8
Nsg9
I1990911
sg10
g4930
sbsVMulti-Turn Dialogue Manager
p4933
(isrc.baseline_system.data.Page
Page
p4934
(dp4935
g4
I00
sg5
Nsg8
Nsg9
I0
sg10
g4933
sbsVFeature-Rich
p4936
(isrc.baseline_system.data.Page
Page
p4937
(dp4938
g4
I00
sg5
Nsg8
Nsg9
I0
sg10
g4936
sbsVCool Vr Games
p4939
(isrc.baseline_system.data.Page
Page
p4940
(dp4941
g4
I00
sg5
Nsg8
Nsg9
I0
sg10
g4939
sbsVSQL query language
p4942
(isrc.baseline_system.data.Page
Page
p4943
(dp4944
g4
I00
sg5
Nsg8
Nsg9
I0
sg10
g4942
sbsVInari Integrated System
p4945
(isrc.baseline_system.data.Page
Page
p4946
(dp4947
g4
I00
sg5
Nsg8
Nsg9
I0
sg10
g4945
sbsVCFO Martin Schroeter
p4948
(isrc.baseline_system.data.Page
Page
p4949
(dp4950
g4
I00
sg5
Nsg8
Nsg9
I0
sg10
g4948
sbsg342
g340
sVContinuous Glucose Monitors
p4951
(isrc.baseline_system.data.Page
Page
p4952
(dp4953
g4
I00
sg5
Nsg8
Nsg9
I0
sg10
g4951
sbsVvision processing unit
p4954
(isrc.baseline_system.data.Page
Page
p4955
(dp4956
g4
I00
sg5
Nsg8
Nsg9
I50228744
sg10
g4954
sbsg2303
g2301
sVchief compliance officer
p4957
(isrc.baseline_system.data.Page
Page
p4958
(dp4959
g4
I00
sg5
(lp4960
VCCO
p4961
asg8
Nsg9
I9487780
sg10
g4957
sbsVAccountable Care Organizations
p4962
(isrc.baseline_system.data.Page
Page
p4963
(dp4964
g4
I00
sg5
Nsg8
Nsg9
I0
sg10
g4962
sbsVDVC
p4965
(isrc.baseline_system.data.Page
Page
p4966
(dp4967
g4
I00
sg5
Nsg8
Nsg9
I986913
sg10
g4965
sbsVTransaction Processing Software
p4968
(isrc.baseline_system.data.Page
Page
p4969
(dp4970
g4
I00
sg5
Nsg8
Nsg9
I0
sg10
g4968
sbsVBusiness Associate Agreement
p4971
(isrc.baseline_system.data.Page
Page
p4972
(dp4973
g4
I00
sg5
Nsg8
Nsg9
I0
sg10
g4971
sbsVTableau Data Engine
p4974
(isrc.baseline_system.data.Page
Page
p4975
(dp4976
g4
I00
sg5
Nsg8
Nsg9
I0
sg10
g4974
sbsg2285
g2280
sg2710
g2708
sg4067
g4065
sVDana
p4977
(isrc.baseline_system.data.Page
Page
p4978
(dp4979
g4
I00
sg5
Nsg8
Nsg9
I86432
sg10
g4977
sbsVmainframe data migration
p4980
(isrc.baseline_system.data.Page
Page
p4981
(dp4982
g4
I00
sg5
Nsg8
Nsg9
I0
sg10
g4980
sbsVUnstructured Health Data
p4983
(isrc.baseline_system.data.Page
Page
p4984
(dp4985
g4
I00
sg5
Nsg8
Nsg9
I0
sg10
g4983
sbsVIEM
p4986
(isrc.baseline_system.data.Page
Page
p4987
(dp4988
g4
I00
sg5
Nsg8
Nsg9
I368545
sg10
g4986
sbsVCDs
p4989
(isrc.baseline_system.data.Page
Page
p4990
(dp4991
g4
I01
sg5
Nsg8
(isrc.baseline_system.data.Page
Page
p4992
(dp4993
g4
I00
sg5
(lp4994
VCD
p4995
asg8
Nsg9
I6429
sg10
VCompact disc
p4996
sbsg9
I486428
sg10
g4989
sbsVIEA
p4997
(isrc.baseline_system.data.Page
Page
p4998
(dp4999
g4
I00
sg5
Nsg8
Nsg9
I58675
sg10
g4997
sbsg4996
g4992
sVNVR
p5000
(isrc.baseline_system.data.Page
Page
p5001
(dp5002
g4
I00
sg5
Nsg8
Nsg9
I24019605
sg10
g5000
sbsg3669
g3667
sg2858
g2854
sVCDC
p5003
(isrc.baseline_system.data.Page
Page
p5004
(dp5005
g4
I00
sg5
Nsg8
Nsg9
I6809
sg10
g5003
sbsVCDN
p5006
(isrc.baseline_system.data.Page
Page
p5007
(dp5008
g4
I00
sg5
Nsg8
Nsg9
I885198
sg10
g5006
sbsVCDH
p5009
(isrc.baseline_system.data.Page
Page
p5010
(dp5011
g4
I00
sg5
Nsg8
Nsg9
I589611
sg10
g5009
sbsVAnu
p5012
(isrc.baseline_system.data.Page
Page
p5013
(dp5014
g4
I00
sg5
Nsg8
Nsg9
I22544621
sg10
g5012
sbsVCDW
p5015
(isrc.baseline_system.data.Page
Page
p5016
(dp5017
g4
I00
sg5
Nsg8
Nsg9
I2885965
sg10
g5015
sbsVPLC
p5018
(isrc.baseline_system.data.Page
Page
p5019
(dp5020
g4
I00
sg5
Nsg8
Nsg9
I182405
sg10
g5018
sbsVRHEL
p5021
(isrc.baseline_system.data.Page
Page
p5022
(dp5023
g4
I01
sg5
Nsg8
g2390
sg9
I1183923
sg10
g5021
sbsg3789
g3782
sg4806
g4804
sg4522
g4517
sVequity derivatives revenues
p5024
(isrc.baseline_system.data.Page
Page
p5025
(dp5026
g4
I00
sg5
Nsg8
Nsg9
I0
sg10
g5024
sbsVave
p5027
(isrc.baseline_system.data.Page
Page
p5028
(dp5029
g4
I00
sg5
Nsg8
Nsg9
I1847497
sg10
g5027
sbsg3663
g3658
sVCoho Data Cto
p5030
(isrc.baseline_system.data.Page
Page
p5031
(dp5032
g4
I00
sg5
Nsg8
Nsg9
I0
sg10
g5030
sbsVTotally Integrated Automation
p5033
(isrc.baseline_system.data.Page
Page
p5034
(dp5035
g4
I01
sg5
Nsg8
(isrc.baseline_system.data.Page
Page
p5036
(dp5037
g4
I00
sg5
Nsg8
Nsg9
I14571457
sg10
VTotally integrated automation
p5038
sbsg9
I33613704
sg10
g5033
sbsVTransparency Market Research
p5039
(isrc.baseline_system.data.Page
Page
p5040
(dp5041
g4
I00
sg5
Nsg8
Nsg9
I46396089
sg10
g5039
sbsVConsumer Electronics Show
p5042
(isrc.baseline_system.data.Page
Page
p5043
(dp5044
g4
I00
sg5
(lp5045
VInternational CES
p5046
aVCES
p5047
asg8
Nsg9
I273555
sg10
g5042
sbsVClients Single-Point Access
p5048
(isrc.baseline_system.data.Page
Page
p5049
(dp5050
g4
I00
sg5
Nsg8
Nsg9
I0
sg10
g5048
sbsVpreventive cybersecurity solution
p5051
(isrc.baseline_system.data.Page
Page
p5052
(dp5053
g4
I00
sg5
Nsg8
Nsg9
I0
sg10
g5051
sbsVMTD
p5054
(isrc.baseline_system.data.Page
Page
p5055
(dp5056
g4
I00
sg5
Nsg8
Nsg9
I2473729
sg10
g5054
sbsVGoogle Play
p5057
(isrc.baseline_system.data.Page
Page
p5058
(dp5059
g4
I00
sg5
(lp5060
VGoogle Play Store
p5061
aVPlay Store
p5062
aVPlay
p5063
aVAndroid App Store
p5064
aVPlaystore
p5065
aVAndroid Market
p5066
asg8
Nsg9
I34986915
sg10
g5057
sbsVField Programmable Gate Array
p5067
(isrc.baseline_system.data.Page
Page
p5068
(dp5069
g4
I01
sg5
Nsg8
(isrc.baseline_system.data.Page
Page
p5070
(dp5071
g4
I00
sg5
(lp5072
VFPGA
p5073
aVField-Programmable Gate Array
p5074
asg8
Nsg9
I10969
sg10
VField-programmable gate array
p5075
sbsg9
I2637235
sg10
g5067
sbsVcloud software solutions
p5076
(isrc.baseline_system.data.Page
Page
p5077
(dp5078
g4
I00
sg5
Nsg8
Nsg9
I0
sg10
g5076
sbsVanthropomorphic digital assistants
p5079
(isrc.baseline_system.data.Page
Page
p5080
(dp5081
g4
I00
sg5
Nsg8
Nsg9
I0
sg10
g5079
sbsVSands Expo Center
p5082
(isrc.baseline_system.data.Page
Page
p5083
(dp5084
g4
I00
sg5
Nsg8
Nsg9
I0
sg10
g5082
sbsVdose
p5085
(isrc.baseline_system.data.Page
Page
p5086
(dp5087
g4
I00
sg5
Nsg8
Nsg9
I8126
sg10
g5085
sbsVGSA
p5088
(isrc.baseline_system.data.Page
Page
p5089
(dp5090
g4
I00
sg5
Nsg8
Nsg9
I327191
sg10
g5088
sbsVDavid Shingy Shing
p5091
(isrc.baseline_system.data.Page
Page
p5092
(dp5093
g4
I00
sg5
Nsg8
Nsg9
I0
sg10
g5091
sbsVChief Medical Officer
p5094
(isrc.baseline_system.data.Page
Page
p5095
(dp5096
g4
I00
sg5
(lp5097
VCMO
p5098
asg8
Nsg9
I13324187
sg10
g5094
sbsg754
g752
sVcoordination
p5099
(isrc.baseline_system.data.Page
Page
p5100
(dp5101
g4
I00
sg5
Nsg8
Nsg9
I1988731
sg10
g5099
sbsVMobile World Congress
p5102
(isrc.baseline_system.data.Page
Page
p5103
(dp5104
g4
I00
sg5
Nsg8
Nsg9
I12793425
sg10
g5102
sbsVAPEC
p5105
(isrc.baseline_system.data.Page
Page
p5106
(dp5107
g4
I01
sg5
Nsg8
g1138
sg9
I5073220
sg10
g5105
sbsVFederal Trade Commission
p5108
(isrc.baseline_system.data.Page
Page
p5109
(dp5110
g4
I00
sg5
(lp5111
VFTC
p5112
asg8
Nsg9
I182215
sg10
g5108
sbsVsecurity management systems
p5113
(isrc.baseline_system.data.Page
Page
p5114
(dp5115
g4
I00
sg5
Nsg8
Nsg9
I0
sg10
g5113
sbsVConvolutional neural networks
p5116
(isrc.baseline_system.data.Page
Page
p5117
(dp5118
g4
I01
sg5
Nsg8
(isrc.baseline_system.data.Page
Page
p5119
(dp5120
g4
I00
sg5
(lp5121
VCNN
p5122
aVConvNet
p5123
aVConvolutional Nets
p5124
aVConvolutional Networks
p5125
aVConvolutional Network
p5126
aVConvolutional Neural Networks
p5127
aVConvolution Neural Network
p5128
asg8
Nsg9
I40409788
sg10
VConvolutional neural network
p5129
sbsg9
I50277770
sg10
g5116
sbsVAsset Performance Management
p5130
(isrc.baseline_system.data.Page
Page
p5131
(dp5132
g4
I00
sg5
Nsg8
Nsg9
I0
sg10
g5130
sbsVrelational database service
p5133
(isrc.baseline_system.data.Page
Page
p5134
(dp5135
g4
I00
sg5
Nsg8
Nsg9
I0
sg10
g5133
sbsg1515
g1510
sVSamsung Pay Users
p5136
(isrc.baseline_system.data.Page
Page
p5137
(dp5138
g4
I00
sg5
Nsg8
Nsg9
I0
sg10
g5136
sbsVfats
p5139
(isrc.baseline_system.data.Page
Page
p5140
(dp5141
g4
I00
sg5
Nsg8
Nsg9
I56524
sg10
g5139
sbsVtensor processing units
p5142
(isrc.baseline_system.data.Page
Page
p5143
(dp5144
g4
I01
sg5
Nsg8
g2055
sg9
I50969341
sg10
g5142
sbsVgraphical processor units
p5145
(isrc.baseline_system.data.Page
Page
p5146
(dp5147
g4
I00
sg5
Nsg8
Nsg9
I0
sg10
g5145
sbsVpower usage efficiency
p5148
(isrc.baseline_system.data.Page
Page
p5149
(dp5150
g4
I00
sg5
Nsg8
Nsg9
I0
sg10
g5148
sbsVHybrid Cloud Model
p5151
(isrc.baseline_system.data.Page
Page
p5152
(dp5153
g4
I00
sg5
Nsg8
Nsg9
I0
sg10
g5151
sbsVSQL
p5154
(isrc.baseline_system.data.Page
Page
p5155
(dp5156
g4
I00
sg5
(lp5157
VStructured Query Language
p5158
aVStructural Query Language
p5159
asg8
Nsg9
I29004
sg10
g5154
sbsVVisionary Innovation  Convergence
p5160
(isrc.baseline_system.data.Page
Page
p5161
(dp5162
g4
I00
sg5
Nsg8
Nsg9
I0
sg10
g5160
sbsVenterprise cloud market
p5163
(isrc.baseline_system.data.Page
Page
p5164
(dp5165
g4
I00
sg5
Nsg8
Nsg9
I0
sg10
g5163
sbsVfield programmable gate arrays
p5166
(isrc.baseline_system.data.Page
Page
p5167
(dp5168
g4
I00
sg5
Nsg8
Nsg9
I0
sg10
g5166
sbsg2867
g2865
sg4273
g4271
sVexecuted recovery procedures
p5169
(isrc.baseline_system.data.Page
Page
p5170
(dp5171
g4
I00
sg5
Nsg8
Nsg9
I0
sg10
g5169
sbsVinitial public offer
p5172
(isrc.baseline_system.data.Page
Page
p5173
(dp5174
g4
I01
sg5
Nsg8
(isrc.baseline_system.data.Page
Page
p5175
(dp5176
g4
I00
sg5
(lp5177
VIPO
p5178
asg8
Nsg9
I63879
sg10
VInitial public offering
p5179
sbsg9
I36392025
sg10
g5172
sbsVROS
p5180
(isrc.baseline_system.data.Page
Page
p5181
(dp5182
g4
I01
sg5
Nsg8
g4052
sg9
I17778993
sg10
g5180
sbsVhistorical and real-time data
p5183
(isrc.baseline_system.data.Page
Page
p5184
(dp5185
g4
I00
sg5
Nsg8
Nsg9
I0
sg10
g5183
sbsVAi Product Efforts
p5186
(isrc.baseline_system.data.Page
Page
p5187
(dp5188
g4
I00
sg5
Nsg8
Nsg9
I0
sg10
g5186
sbsVBDS
p5189
(isrc.baseline_system.data.Page
Page
p5190
(dp5191
g4
I00
sg5
Nsg8
Nsg9
I3275970
sg10
g5189
sbsg4661
g4659
sVNational Outsourcing Association
p5192
(isrc.baseline_system.data.Page
Page
p5193
(dp5194
g4
I00
sg5
Nsg8
Nsg9
I3766982
sg10
g5192
sbsg5038
g5036
sVDense Cpu/Memory Model
p5195
(isrc.baseline_system.data.Page
Page
p5196
(dp5197
g4
I00
sg5
Nsg8
Nsg9
I0
sg10
g5195
sbsVsoftware
p5198
(isrc.baseline_system.data.Page
Page
p5199
(dp5200
g4
I00
sg5
(lp5201
Vcomputer software
p5202
asg8
Nsg9
I5309
sg10
g5198
sbsVadvanced driver-assist systems
p5203
(isrc.baseline_system.data.Page
Page
p5204
(dp5205
g4
I00
sg5
Nsg8
Nsg9
I0
sg10
g5203
sbsVglobal business services
p5206
(isrc.baseline_system.data.Page
Page
p5207
(dp5208
g4
I00
sg5
Nsg8
Nsg9
I0
sg10
g5206
sbsVAmerican Marketing Association
p5209
(isrc.baseline_system.data.Page
Page
p5210
(dp5211
g4
I00
sg5
(lp5212
VAMA
p5213
asg8
Nsg9
I1802886
sg10
g5209
sbsVIDM
p5214
(isrc.baseline_system.data.Page
Page
p5215
(dp5216
g4
I00
sg5
Nsg8
Nsg9
I82375
sg10
g5214
sbsVIDF
p5217
(isrc.baseline_system.data.Page
Page
p5218
(dp5219
g4
I00
sg5
Nsg8
Nsg9
I15478
sg10
g5217
sbsVIDE
p5220
(isrc.baseline_system.data.Page
Page
p5221
(dp5222
g4
I00
sg5
Nsg8
Nsg9
I15304
sg10
g5220
sbsg2584
g2579
sVCloud Software Solutions
p5223
(isrc.baseline_system.data.Page
Page
p5224
(dp5225
g4
I00
sg5
Nsg8
Nsg9
I0
sg10
g5223
sbsVIDA
p5226
(isrc.baseline_system.data.Page
Page
p5227
(dp5228
g4
I01
sg5
Nsg8
g1520
sg9
I36749
sg10
g5226
sbsVeconomic reform plan
p5229
(isrc.baseline_system.data.Page
Page
p5230
(dp5231
g4
I00
sg5
Nsg8
Nsg9
I0
sg10
g5229
sbsVCCSG
p5232
(isrc.baseline_system.data.Page
Page
p5233
(dp5234
g4
I00
sg5
Nsg8
Nsg9
I23984201
sg10
g5232
sbsVPMR
p5235
(isrc.baseline_system.data.Page
Page
p5236
(dp5237
g4
I00
sg5
Nsg8
Nsg9
I735621
sg10
g5235
sbsVMacys Woodbridge Center
p5238
(isrc.baseline_system.data.Page
Page
p5239
(dp5240
g4
I00
sg5
Nsg8
Nsg9
I0
sg10
g5238
sbsVChief Operating Officer
p5241
(isrc.baseline_system.data.Page
Page
p5242
(dp5243
g4
I01
sg5
Nsg8
g4368
sg9
I727705
sg10
g5241
sbsVAmy
p5244
(isrc.baseline_system.data.Page
Page
p5245
(dp5246
g4
I00
sg5
(lp5247
VAmy (given name)
p5248
aVAmy (first name)
p5249
asg8
Nsg9
I260816
sg10
g5244
sbsVFASB
p5250
(isrc.baseline_system.data.Page
Page
p5251
(dp5252
g4
I01
sg5
Nsg8
g2953
sg9
I182788
sg10
g5250
sbsVReal-time bidding
p5253
(isrc.baseline_system.data.Page
Page
p5254
(dp5255
g4
I00
sg5
Nsg8
Nsg9
I33812598
sg10
g5253
sbsVPersonal Computing Market
p5256
(isrc.baseline_system.data.Page
Page
p5257
(dp5258
g4
I00
sg5
Nsg8
Nsg9
I0
sg10
g5256
sbsVhybrid cloud model
p5259
(isrc.baseline_system.data.Page
Page
p5260
(dp5261
g4
I00
sg5
Nsg8
Nsg9
I0
sg10
g5259
sbsVmoral and punitive damages
p5262
(isrc.baseline_system.data.Page
Page
p5263
(dp5264
g4
I00
sg5
Nsg8
Nsg9
I0
sg10
g5262
sbsg1531
g1525
sVTraditional Phone Sales
p5265
(isrc.baseline_system.data.Page
Page
p5266
(dp5267
g4
I00
sg5
Nsg8
Nsg9
I0
sg10
g5265
sbsVMarket Development Funds
p5268
(isrc.baseline_system.data.Page
Page
p5269
(dp5270
g4
I00
sg5
Nsg8
Nsg9
I0
sg10
g5268
sbsg4035
g4033
sVcomparison shopping sites
p5271
(isrc.baseline_system.data.Page
Page
p5272
(dp5273
g4
I00
sg5
Nsg8
Nsg9
I0
sg10
g5271
sbsVsentient dust storms
p5274
(isrc.baseline_system.data.Page
Page
p5275
(dp5276
g4
I00
sg5
Nsg8
Nsg9
I0
sg10
g5274
sbsVAutomated Board Inspection
p5277
(isrc.baseline_system.data.Page
Page
p5278
(dp5279
g4
I00
sg5
Nsg8
Nsg9
I0
sg10
g5277
sbsVWIP
p5280
(isrc.baseline_system.data.Page
Page
p5281
(dp5282
g4
I00
sg5
Nsg8
Nsg9
I1658641
sg10
g5280
sbsVRelevant Health Information
p5283
(isrc.baseline_system.data.Page
Page
p5284
(dp5285
g4
I00
sg5
Nsg8
Nsg9
I0
sg10
g5283
sbsVCross Country Drive
p5286
(isrc.baseline_system.data.Page
Page
p5287
(dp5288
g4
I00
sg5
Nsg8
Nsg9
I0
sg10
g5286
sbsVGoogle Play Store
p5289
(isrc.baseline_system.data.Page
Page
p5290
(dp5291
g4
I01
sg5
Nsg8
g5058
sg9
I34988833
sg10
g5289
sbsVCIA
p5292
(isrc.baseline_system.data.Page
Page
p5293
(dp5294
g4
I01
sg5
Nsg8
g3201
sg9
I704623
sg10
g5292
sbsVHospital Acquired Infections
p5295
(isrc.baseline_system.data.Page
Page
p5296
(dp5297
g4
I01
sg5
Nsg8
(isrc.baseline_system.data.Page
Page
p5298
(dp5299
g4
I00
sg5
(lp5300
Vnosocomial infection
p5301
aVnosocomial infections
p5302
asg8
Nsg9
I875883
sg10
VHospital-acquired infection
p5303
sbsg9
I8217471
sg10
g5295
sbsVcustomizable eicosapentaenoic acid
p5304
(isrc.baseline_system.data.Page
Page
p5305
(dp5306
g4
I00
sg5
Nsg8
Nsg9
I0
sg10
g5304
sbsVtone color scheme
p5307
(isrc.baseline_system.data.Page
Page
p5308
(dp5309
g4
I00
sg5
Nsg8
Nsg9
I0
sg10
g5307
sbsg3338
g3334
sVLiquid Crystal Display
p5310
(isrc.baseline_system.data.Page
Page
p5311
(dp5312
g4
I01
sg5
Nsg8
(isrc.baseline_system.data.Page
Page
p5313
(dp5314
g4
I00
sg5
(lp5315
VLCD
p5316
asg8
Nsg9
I17932
sg10
VLiquid-crystal display
p5317
sbsg9
I868959
sg10
g5310
sbsVfield-programmable gate arrays
p5318
(isrc.baseline_system.data.Page
Page
p5319
(dp5320
g4
I01
sg5
Nsg8
(isrc.baseline_system.data.Page
Page
p5321
(dp5322
g4
I00
sg5
(lp5323
VFPGA
p5324
aVField-Programmable Gate Array
p5325
asg8
Nsg9
I10969
sg10
VField-programmable gate array
p5326
sbsg9
I18789172
sg10
g5318
sbsVCIO
p5327
(isrc.baseline_system.data.Page
Page
p5328
(dp5329
g4
I00
sg5
Nsg8
Nsg9
I153709
sg10
g5327
sbsVMSP
p5330
(isrc.baseline_system.data.Page
Page
p5331
(dp5332
g4
I00
sg5
Nsg8
Nsg9
I236140
sg10
g5330
sbsVCIP
p5333
(isrc.baseline_system.data.Page
Page
p5334
(dp5335
g4
I00
sg5
Nsg8
Nsg9
I652513
sg10
g5333
sbsVPeter Thiel-backed company
p5336
(isrc.baseline_system.data.Page
Page
p5337
(dp5338
g4
I00
sg5
Nsg8
Nsg9
I0
sg10
g5336
sbsVOCP
p5339
(isrc.baseline_system.data.Page
Page
p5340
(dp5341
g4
I00
sg5
Nsg8
Nsg9
I1027732
sg10
g5339
sbsVExecutive Vice President
p5342
(isrc.baseline_system.data.Page
Page
p5343
(dp5344
g4
I01
sg5
Nsg8
(isrc.baseline_system.data.Page
Page
p5345
(dp5346
g4
I00
sg5
(lp5347
Vvice-president
p5348
aVdirector
p5349
asg8
Nsg9
I52113
sg10
VVice president
p5350
sbsg9
I727700
sg10
g5342
sbsVNatural-Language-Processing
p5351
(isrc.baseline_system.data.Page
Page
p5352
(dp5353
g4
I00
sg5
Nsg8
Nsg9
I0
sg10
g5351
sbsVConnected Production Environment
p5354
(isrc.baseline_system.data.Page
Page
p5355
(dp5356
g4
I00
sg5
Nsg8
Nsg9
I0
sg10
g5354
sbsVbasic augmented reality
p5357
(isrc.baseline_system.data.Page
Page
p5358
(dp5359
g4
I00
sg5
Nsg8
Nsg9
I0
sg10
g5357
sbsVDAI
p5360
(isrc.baseline_system.data.Page
Page
p5361
(dp5362
g4
I01
sg5
Nsg8
g1561
sg9
I39183011
sg10
g5360
sbsVcloud-based security service
p5363
(isrc.baseline_system.data.Page
Page
p5364
(dp5365
g4
I00
sg5
Nsg8
Nsg9
I0
sg10
g5363
sbsg3185
g3183
sVSRI
p5366
(isrc.baseline_system.data.Page
Page
p5367
(dp5368
g4
I00
sg5
Nsg8
Nsg9
I304388
sg10
g5366
sbsVAmadeus North America
p5369
(isrc.baseline_system.data.Page
Page
p5370
(dp5371
g4
I00
sg5
Nsg8
Nsg9
I0
sg10
g5369
sbsVgas
p5372
(isrc.baseline_system.data.Page
Page
p5373
(dp5374
g4
I00
sg5
(lp5375
Vgaseous matter
p5376
asg8
Nsg9
I18993869
sg10
g5372
sbsg4080
g4074
sVMACD
p5377
(isrc.baseline_system.data.Page
Page
p5378
(dp5379
g4
I00
sg5
Nsg8
Nsg9
I1414360
sg10
g5377
sbsVgraphics processor unit
p5380
(isrc.baseline_system.data.Page
Page
p5381
(dp5382
g4
I00
sg5
Nsg8
Nsg9
I0
sg10
g5380
sbsVRTC
p5383
(isrc.baseline_system.data.Page
Page
p5384
(dp5385
g4
I00
sg5
Nsg8
Nsg9
I628781
sg10
g5383
sbsVBroader Product Offering
p5386
(isrc.baseline_system.data.Page
Page
p5387
(dp5388
g4
I00
sg5
Nsg8
Nsg9
I0
sg10
g5386
sbsVIBM Cloud Tools
p5389
(isrc.baseline_system.data.Page
Page
p5390
(dp5391
g4
I00
sg5
Nsg8
Nsg9
I0
sg10
g5389
sbsVGeographic Information Systems
p5392
(isrc.baseline_system.data.Page
Page
p5393
(dp5394
g4
I01
sg5
Nsg8
(isrc.baseline_system.data.Page
Page
p5395
(dp5396
g4
I00
sg5
(lp5397
VGIS
p5398
asg8
Nsg9
I12398
sg10
VGeographic information system
p5399
sbsg9
I368503
sg10
g5392
sbsVPersonalized Event Engagement Portal
p5400
(isrc.baseline_system.data.Page
Page
p5401
(dp5402
g4
I00
sg5
Nsg8
Nsg9
I0
sg10
g5400
sbs.