(dp0
Vbomb
p1
(isrc.baseline_system.data.Page
Page
p2
(dp3
S'is_redirect'
p4
I00
sS'aliases'
p5
NsS'redirect_page'
p6
NsS'pageid'
p7
I47628
sS'title'
p8
g1
sbsVanti-syrian
p9
(isrc.baseline_system.data.Page
Page
p10
(dp11
g4
I00
sg5
Nsg6
Nsg7
I0
sg8
g9
sbsVBeirut
p12
(isrc.baseline_system.data.Page
Page
p13
(dp14
g4
I00
sg5
Nsg6
Nsg7
I37428
sg8
g12
sbsVat least two
p15
(isrc.baseline_system.data.Page
Page
p16
(dp17
g4
I00
sg5
Nsg6
Nsg7
I0
sg8
g15
sbsVBig
p18
(isrc.baseline_system.data.Page
Page
p19
(dp20
g4
I00
sg5
Nsg6
Nsg7
I4844989
sg8
g18
sbsVFriday
p21
(isrc.baseline_system.data.Page
Page
p22
(dp23
g4
I00
sg5
Nsg6
Nsg7
I54632
sg8
g21
sbsVanti-damascus
p24
(isrc.baseline_system.data.Page
Page
p25
(dp26
g4
I00
sg5
Nsg6
Nsg7
I0
sg8
g24
sbsVEnemy
p27
(isrc.baseline_system.data.Page
Page
p28
(dp29
g4
I00
sg5
Nsg6
Nsg7
I33884873
sg8
g27
sbsVbig
p30
(isrc.baseline_system.data.Page
Page
p31
(dp32
g4
I00
sg5
Nsg6
Nsg7
I4844989
sg8
g30
sbsVSassine
p33
(isrc.baseline_system.data.Page
Page
p34
(dp35
g4
I00
sg5
Nsg6
Nsg7
I54056766
sg8
g33
sbsVLarge
p36
(isrc.baseline_system.data.Page
Page
p37
(dp38
g4
I00
sg5
Nsg6
Nsg7
I7746610
sg8
g36
sbsVFacts on the ground
p39
(isrc.baseline_system.data.Page
Page
p40
(dp41
g4
I00
sg5
Nsg6
Nsg7
I18565714
sg8
g39
sbsVBomb
p42
(isrc.baseline_system.data.Page
Page
p43
(dp44
g4
I00
sg5
Nsg6
Nsg7
I47628
sg8
g42
sbsV58
p45
(isrc.baseline_system.data.Page
Page
p46
(dp47
g4
I00
sg5
Nsg6
Nsg7
I38345656
sg8
g45
sbsVMarch 14 Alliance
p48
(isrc.baseline_system.data.Page
Page
p49
(dp50
g4
I00
sg5
Nsg6
Nsg7
I29160920
sg8
g48
sbsVlarge
p51
(isrc.baseline_system.data.Page
Page
p52
(dp53
g4
I00
sg5
Nsg6
Nsg7
I7746610
sg8
g51
sbsVcentral beirut
p54
(isrc.baseline_system.data.Page
Page
p55
(dp56
g4
I00
sg5
Nsg6
Nsg7
I0
sg8
g54
sbsVsecurity
p57
(isrc.baseline_system.data.Page
Page
p58
(dp59
g4
I00
sg5
Nsg6
Nsg7
I41684
sg8
g57
sbsVWsvn-Tv
p60
(isrc.baseline_system.data.Page
Page
p61
(dp62
g4
I00
sg5
Nsg6
Nsg7
I0
sg8
g60
sbsVDozen
p63
(isrc.baseline_system.data.Page
Page
p64
(dp65
g4
I00
sg5
Nsg6
Nsg7
I208154
sg8
g63
sbsVofficial
p66
(isrc.baseline_system.data.Page
Page
p67
(dp68
g4
I00
sg5
Nsg6
Nsg7
I725182
sg8
g66
sbsVpeople
p69
(isrc.baseline_system.data.Page
Page
p70
(dp71
g4
I00
sg5
Nsg6
Nsg7
I3488351
sg8
g69
sbsVintelligence
p72
(isrc.baseline_system.data.Page
Page
p73
(dp74
g4
I00
sg5
Nsg6
Nsg7
I519280
sg8
g72
sbsVlebanon
p75
(isrc.baseline_system.data.Page
Page
p76
(dp77
g4
I00
sg5
Nsg6
Nsg7
I17771
sg8
g75
sbsVFoe
p78
(isrc.baseline_system.data.Page
Page
p79
(dp80
g4
I01
sg5
Nsg6
(isrc.baseline_system.data.Page
Page
p81
(dp82
g4
I00
sg5
Nsg6
Nsg7
I33884873
sg8
VEnemy
p83
sbsg7
I33885248
sg8
g78
sbsVEkantipur
p84
(isrc.baseline_system.data.Page
Page
p85
(dp86
g4
I00
sg5
Nsg6
Nsg7
I0
sg8
g84
sbsVat least 2 people
p87
(isrc.baseline_system.data.Page
Page
p88
(dp89
g4
I00
sg5
Nsg6
Nsg7
I0
sg8
g87
sbsVusa today
p90
(isrc.baseline_system.data.Page
Page
p91
(dp92
g4
I01
sg5
Nsg6
(isrc.baseline_system.data.Page
Page
p93
(dp94
g4
I00
sg5
Nsg6
Nsg7
I208463
sg8
VUSA Today
p95
sbsg7
I959810
sg8
g90
sbsVPm
p96
(isrc.baseline_system.data.Page
Page
p97
(dp98
g4
I01
sg5
Nsg6
(isrc.baseline_system.data.Page
Page
p99
(dp100
g4
I00
sg5
Nsg6
Nsg7
I272347
sg8
VPM
p101
sbsg7
I82151
sg8
g96
sbsVHead
p102
(isrc.baseline_system.data.Page
Page
p103
(dp104
g4
I00
sg5
Nsg6
Nsg7
I1209545
sg8
g102
sbsVfoe
p105
(isrc.baseline_system.data.Page
Page
p106
(dp107
g4
I01
sg5
Nsg6
g28
sg7
I33885248
sg8
g105
sbsVekantipur
p108
(isrc.baseline_system.data.Page
Page
p109
(dp110
g4
I00
sg5
Nsg6
Nsg7
I0
sg8
g108
sbsVFifteen
p111
(isrc.baseline_system.data.Page
Page
p112
(dp113
g4
I01
sg5
Nsg6
(isrc.baseline_system.data.Page
Page
p114
(dp115
g4
I00
sg5
Nsg6
Nsg7
I10682185
sg8
V15
p116
sbsg7
I480075
sg8
g111
sbsVPM
p117
(isrc.baseline_system.data.Page
Page
p118
(dp119
g4
I00
sg5
Nsg6
Nsg7
I272347
sg8
g117
sbsVAt Least Two
p120
(isrc.baseline_system.data.Page
Page
p121
(dp122
g4
I00
sg5
Nsg6
Nsg7
I0
sg8
g120
sbsVfriday
p123
(isrc.baseline_system.data.Page
Page
p124
(dp125
g4
I00
sg5
Nsg6
Nsg7
I54632
sg8
g123
sbsVchristian
p126
(isrc.baseline_system.data.Page
Page
p127
(dp128
g4
I00
sg5
Nsg6
Nsg7
I18337522
sg8
g126
sbsVOfficial
p129
(isrc.baseline_system.data.Page
Page
p130
(dp131
g4
I00
sg5
Nsg6
Nsg7
I725182
sg8
g129
sbsVaftermath
p132
(isrc.baseline_system.data.Page
Page
p133
(dp134
g4
I00
sg5
Nsg6
Nsg7
I549429
sg8
g132
sbsVSecurity
p135
(isrc.baseline_system.data.Page
Page
p136
(dp137
g4
I00
sg5
Nsg6
Nsg7
I41684
sg8
g135
sbsVUsa Today
p138
(isrc.baseline_system.data.Page
Page
p139
(dp140
g4
I01
sg5
Nsg6
(isrc.baseline_system.data.Page
Page
p141
(dp142
g4
I00
sg5
Nsg6
Nsg7
I208463
sg8
VUSA Today
p143
sbsg7
I12635216
sg8
g138
sbsVfifteen
p144
(isrc.baseline_system.data.Page
Page
p145
(dp146
g4
I01
sg5
Nsg6
(isrc.baseline_system.data.Page
Page
p147
(dp148
g4
I00
sg5
Nsg6
Nsg7
I10682185
sg8
V15
p149
sbsg7
I480075
sg8
g144
sbsVPeople
p150
(isrc.baseline_system.data.Page
Page
p151
(dp152
g4
I00
sg5
Nsg6
Nsg7
I3488351
sg8
g150
sbsVIntelligence
p153
(isrc.baseline_system.data.Page
Page
p154
(dp155
g4
I00
sg5
Nsg6
Nsg7
I519280
sg8
g153
sbsVAnti-Syrian
p156
(isrc.baseline_system.data.Page
Page
p157
(dp158
g4
I01
sg5
Nsg6
g49
sg7
I9527294
sg8
g156
sbsV7 Others
p159
(isrc.baseline_system.data.Page
Page
p160
(dp161
g4
I00
sg5
Nsg6
Nsg7
I0
sg8
g159
sbsVmassive
p162
(isrc.baseline_system.data.Page
Page
p163
(dp164
g4
I00
sg5
Nsg6
Nsg7
I2416566
sg8
g162
sbsVCentral Beirut
p165
(isrc.baseline_system.data.Page
Page
p166
(dp167
g4
I00
sg5
Nsg6
Nsg7
I0
sg8
g165
sbsVsyria
p168
(isrc.baseline_system.data.Page
Page
p169
(dp170
g4
I00
sg5
Nsg6
Nsg7
I7515849
sg8
g168
sbsVSyrian
p171
(isrc.baseline_system.data.Page
Page
p172
(dp173
g4
I01
sg5
Nsg6
(isrc.baseline_system.data.Page
Page
p174
(dp175
g4
I00
sg5
Nsg6
Nsg7
I8862873
sg8
VSyrians
p176
sbsg7
I334989
sg8
g171
sbsVsassine square
p177
(isrc.baseline_system.data.Page
Page
p178
(dp179
g4
I00
sg5
Nsg6
Nsg7
I0
sg8
g177
sbsVLeading
p180
(isrc.baseline_system.data.Page
Page
p181
(dp182
g4
I00
sg5
Nsg6
Nsg7
I322020
sg8
g180
sbsVTop
p183
(isrc.baseline_system.data.Page
Page
p184
(dp185
g4
I00
sg5
Nsg6
Nsg7
I302015
sg8
g183
sbsVnumber
p186
(isrc.baseline_system.data.Page
Page
p187
(dp188
g4
I00
sg5
Nsg6
Nsg7
I21690
sg8
g186
sbsVone
p189
(isrc.baseline_system.data.Page
Page
p190
(dp191
g4
I01
sg5
Nsg6
(isrc.baseline_system.data.Page
Page
p192
(dp193
g4
I00
sg5
Nsg6
Nsg7
I22770
sg8
V1
p194
sbsg7
I1878512
sg8
g189
sbsVSyria
p195
(isrc.baseline_system.data.Page
Page
p196
(dp197
g4
I00
sg5
Nsg6
Nsg7
I7515849
sg8
g195
sbsVSyrians
p198
(isrc.baseline_system.data.Page
Page
p199
(dp200
g4
I00
sg5
Nsg6
Nsg7
I8862873
sg8
g198
sbsVinformation branch
p201
(isrc.baseline_system.data.Page
Page
p202
(dp203
g4
I00
sg5
Nsg6
Nsg7
I0
sg8
g201
sbsVarea
p204
(isrc.baseline_system.data.Page
Page
p205
(dp206
g4
I00
sg5
Nsg6
Nsg7
I1209
sg8
g204
sbsVleading
p207
(isrc.baseline_system.data.Page
Page
p208
(dp209
g4
I00
sg5
Nsg6
Nsg7
I322020
sg8
g207
sbsVtop
p210
(isrc.baseline_system.data.Page
Page
p211
(dp212
g4
I00
sg5
Nsg6
Nsg7
I302015
sg8
g210
sbsVArea
p213
(isrc.baseline_system.data.Page
Page
p214
(dp215
g4
I00
sg5
Nsg6
Nsg7
I1209
sg8
g213
sbsVdozens
p216
(isrc.baseline_system.data.Page
Page
p217
(dp218
g4
I01
sg5
Nsg6
g64
sg7
I1074731
sg8
g216
sbsVwsvn-tv
p219
(isrc.baseline_system.data.Page
Page
p220
(dp221
g4
I00
sg5
Nsg6
Nsg7
I0
sg8
g219
sbsVpm
p222
(isrc.baseline_system.data.Page
Page
p223
(dp224
g4
I01
sg5
Nsg6
g118
sg7
I82151
sg8
g222
sbsVhead
p225
(isrc.baseline_system.data.Page
Page
p226
(dp227
g4
I00
sg5
Nsg6
Nsg7
I1209545
sg8
g225
sbsVdozens more
p228
(isrc.baseline_system.data.Page
Page
p229
(dp230
g4
I00
sg5
Nsg6
Nsg7
I0
sg8
g228
sbsV8
p231
(isrc.baseline_system.data.Page
Page
p232
(dp233
g4
I00
sg5
Nsg6
Nsg7
I208174
sg8
g231
sbsVAnti-Damascus
p234
(isrc.baseline_system.data.Page
Page
p235
(dp236
g4
I00
sg5
Nsg6
Nsg7
I0
sg8
g234
sbsVOn The Ground
p237
(isrc.baseline_system.data.Page
Page
p238
(dp239
g4
I00
sg5
Nsg6
Nsg7
I0
sg8
g237
sbsg95
g93
sVat least eight
p240
(isrc.baseline_system.data.Page
Page
p241
(dp242
g4
I00
sg5
Nsg6
Nsg7
I0
sg8
g240
sbsVlebanese
p243
(isrc.baseline_system.data.Page
Page
p244
(dp245
g4
I00
sg5
Nsg6
Nsg7
I140321
sg8
g243
sbsg149
g147
sVAchrafieh
p246
(isrc.baseline_system.data.Page
Page
p247
(dp248
g4
I00
sg5
Nsg6
Nsg7
I1279488
sg8
g246
sbsVcar
p249
(isrc.baseline_system.data.Page
Page
p250
(dp251
g4
I00
sg5
Nsg6
Nsg7
I13673345
sg8
g249
sbsVsassine
p252
(isrc.baseline_system.data.Page
Page
p253
(dp254
g4
I00
sg5
Nsg6
Nsg7
I54056766
sg8
g252
sbsVLebanon
p255
(isrc.baseline_system.data.Page
Page
p256
(dp257
g4
I00
sg5
Nsg6
Nsg7
I17771
sg8
g255
sbsVNumber
p258
(isrc.baseline_system.data.Page
Page
p259
(dp260
g4
I00
sg5
Nsg6
Nsg7
I21690
sg8
g258
sbsVachrafieh
p261
(isrc.baseline_system.data.Page
Page
p262
(dp263
g4
I00
sg5
Nsg6
Nsg7
I1279488
sg8
g261
sbsVPeace
p264
(isrc.baseline_system.data.Page
Page
p265
(dp266
g4
I00
sg5
Nsg6
Nsg7
I24702
sg8
g264
sbsVit
p267
(isrc.baseline_system.data.Page
Page
p268
(dp269
g4
I00
sg5
Nsg6
Nsg7
I74821
sg8
g267
sbsV'8
p270
(isrc.baseline_system.data.Page
Page
p271
(dp272
g4
I00
sg5
Nsg6
Nsg7
I0
sg8
g270
sbsV7 others
p273
(isrc.baseline_system.data.Page
Page
p274
(dp275
g4
I00
sg5
Nsg6
Nsg7
I0
sg8
g273
sbsVmiddle
p276
(isrc.baseline_system.data.Page
Page
p277
(dp278
g4
I00
sg5
Nsg6
Nsg7
I854025
sg8
g276
sbsVDozens
p279
(isrc.baseline_system.data.Page
Page
p280
(dp281
g4
I01
sg5
Nsg6
(isrc.baseline_system.data.Page
Page
p282
(dp283
g4
I00
sg5
Nsg6
Nsg7
I208154
sg8
VDozen
p284
sbsg7
I1074731
sg8
g279
sbsVsyrian
p285
(isrc.baseline_system.data.Page
Page
p286
(dp287
g4
I01
sg5
Nsg6
g199
sg7
I334989
sg8
g285
sbsVInformation Branch
p288
(isrc.baseline_system.data.Page
Page
p289
(dp290
g4
I00
sg5
Nsg6
Nsg7
I0
sg8
g288
sbsVpeace
p291
(isrc.baseline_system.data.Page
Page
p292
(dp293
g4
I00
sg5
Nsg6
Nsg7
I24702
sg8
g291
sbsg194
g192
sVCar
p294
(isrc.baseline_system.data.Page
Page
p295
(dp296
g4
I00
sg5
Nsg6
Nsg7
I13673345
sg8
g294
sbsVAftermath
p297
(isrc.baseline_system.data.Page
Page
p298
(dp299
g4
I00
sg5
Nsg6
Nsg7
I549429
sg8
g297
sbsVon the ground
p300
(isrc.baseline_system.data.Page
Page
p301
(dp302
g4
I01
sg5
Nsg6
g40
sg7
I24657843
sg8
g300
sbsVbeirut
p303
(isrc.baseline_system.data.Page
Page
p304
(dp305
g4
I00
sg5
Nsg6
Nsg7
I37428
sg8
g303
sbsVLebanese
p306
(isrc.baseline_system.data.Page
Page
p307
(dp308
g4
I00
sg5
Nsg6
Nsg7
I140321
sg8
g306
sbsVDozens More
p309
(isrc.baseline_system.data.Page
Page
p310
(dp311
g4
I00
sg5
Nsg6
Nsg7
I0
sg8
g309
sbsVSassine Square
p312
(isrc.baseline_system.data.Page
Page
p313
(dp314
g4
I00
sg5
Nsg6
Nsg7
I33231508
sg8
g312
sbsVMassive
p315
(isrc.baseline_system.data.Page
Page
p316
(dp317
g4
I00
sg5
Nsg6
Nsg7
I2416566
sg8
g315
sbsVChristian
p318
(isrc.baseline_system.data.Page
Page
p319
(dp320
g4
I00
sg5
Nsg6
Nsg7
I18337522
sg8
g318
sbsV78
p321
(isrc.baseline_system.data.Page
Page
p322
(dp323
g4
I00
sg5
Nsg6
Nsg7
I38345688
sg8
g321
sbsVIt
p324
(isrc.baseline_system.data.Page
Page
p325
(dp326
g4
I00
sg5
Nsg6
Nsg7
I74821
sg8
g324
sbsVOne
p327
(isrc.baseline_system.data.Page
Page
p328
(dp329
g4
I01
sg5
Nsg6
(isrc.baseline_system.data.Page
Page
p330
(dp331
g4
I00
sg5
Nsg6
Nsg7
I22770
sg8
V1
p332
sbsg7
I1878512
sg8
g327
sbsVMiddle
p333
(isrc.baseline_system.data.Page
Page
p334
(dp335
g4
I00
sg5
Nsg6
Nsg7
I854025
sg8
g333
sbsVAt Least 2 People
p336
(isrc.baseline_system.data.Page
Page
p337
(dp338
g4
I00
sg5
Nsg6
Nsg7
I0
sg8
g336
sbsVAt Least Eight
p339
(isrc.baseline_system.data.Page
Page
p340
(dp341
g4
I00
sg5
Nsg6
Nsg7
I0
sg8
g339
sbs.