(dp0
Vat least eight
p1
(isrc.baseline_system.data.Page
Page
p2
(dp3
S'is_redirect'
p4
I00
sS'aliases'
p5
NsS'redirect_page'
p6
NsS'pageid'
p7
I0
sS'title'
p8
g1
sbsVofficial
p9
(isrc.baseline_system.data.Page
Page
p10
(dp11
g4
I00
sg5
(lp12
Vgovernment official
p13
aVadministrator
p14
aVhigher civil servant
p15
asg6
Nsg7
I725182
sg8
g9
sbsVbomb
p16
(isrc.baseline_system.data.Page
Page
p17
(dp18
g4
I00
sg5
Nsg6
Nsg7
I47628
sg8
g16
sbsVachrafieh
p19
(isrc.baseline_system.data.Page
Page
p20
(dp21
g4
I00
sg5
Nsg6
Nsg7
I1279488
sg8
g19
sbsVsassine square
p22
(isrc.baseline_system.data.Page
Page
p23
(dp24
g4
I00
sg5
Nsg6
Nsg7
I0
sg8
g22
sbsVintelligence
p25
(isrc.baseline_system.data.Page
Page
p26
(dp27
g4
I00
sg5
(lp28
Vsmartness
p29
aVcleverness
p30
asg6
Nsg7
I519280
sg8
g25
sbsVlebanon
p31
(isrc.baseline_system.data.Page
Page
p32
(dp33
g4
I00
sg5
(lp34
VLebanese Republic
p35
aVlb
p36
aVRepublic of Lebanon
p37
aV\U0001f1f1\U0001f1e7
p38
asg6
Nsg7
I17771
sg8
g31
sbsVnumber
p39
(isrc.baseline_system.data.Page
Page
p40
(dp41
g4
I00
sg5
Nsg6
Nsg7
I21690
sg8
g39
sbsV'8
p42
(isrc.baseline_system.data.Page
Page
p43
(dp44
g4
I00
sg5
Nsg6
Nsg7
I0
sg8
g42
sbsV7 others
p45
(isrc.baseline_system.data.Page
Page
p46
(dp47
g4
I00
sg5
Nsg6
Nsg7
I0
sg8
g45
sbsVmiddle
p48
(isrc.baseline_system.data.Page
Page
p49
(dp50
g4
I00
sg5
(lp51
VMedium
p52
asg6
Nsg7
I854025
sg8
g48
sbsVanti-syrian
p53
(isrc.baseline_system.data.Page
Page
p54
(dp55
g4
I00
sg5
Nsg6
Nsg7
I0
sg8
g53
sbsVat least 2 people
p56
(isrc.baseline_system.data.Page
Page
p57
(dp58
g4
I00
sg5
Nsg6
Nsg7
I0
sg8
g56
sbsVusa today
p59
(isrc.baseline_system.data.Page
Page
p60
(dp61
g4
I01
sg5
Nsg6
(isrc.baseline_system.data.Page
Page
p62
(dp63
g4
I00
sg5
Nsg6
Nsg7
I208463
sg8
VUSA Today
p64
sbsg7
I959810
sg8
g59
sbsVsyrian
p65
(isrc.baseline_system.data.Page
Page
p66
(dp67
g4
I01
sg5
Nsg6
(isrc.baseline_system.data.Page
Page
p68
(dp69
g4
I00
sg5
Nsg6
Nsg7
I8862873
sg8
VSyrians
p70
sbsg7
I334989
sg8
g65
sbsg70
g68
sVat least two
p71
(isrc.baseline_system.data.Page
Page
p72
(dp73
g4
I00
sg5
Nsg6
Nsg7
I0
sg8
g71
sbsg64
g62
sVinformation branch
p74
(isrc.baseline_system.data.Page
Page
p75
(dp76
g4
I00
sg5
Nsg6
Nsg7
I0
sg8
g74
sbsVarea
p77
(isrc.baseline_system.data.Page
Page
p78
(dp79
g4
I00
sg5
(lp80
Vsquare
p81
asg6
Nsg7
I1209
sg8
g77
sbsVleading
p82
(isrc.baseline_system.data.Page
Page
p83
(dp84
g4
I00
sg5
Nsg6
Nsg7
I322020
sg8
g82
sbsVtop
p85
(isrc.baseline_system.data.Page
Page
p86
(dp87
g4
I00
sg5
(lp88
Vspinning top
p89
aVspintop
p90
aVBaldufa
p91
asg6
Nsg7
I302015
sg8
g85
sbsVpeace
p92
(isrc.baseline_system.data.Page
Page
p93
(dp94
g4
I00
sg5
Nsg6
Nsg7
I24702
sg8
g92
sbsV1
p95
(isrc.baseline_system.data.Page
Page
p96
(dp97
g4
I00
sg5
(lp98
Vone
p99
aVI
p100
aV\u2160
p101
aV\u2170
p102
asg6
Nsg7
I22770
sg8
g95
sbsVfoe
p103
(isrc.baseline_system.data.Page
Page
p104
(dp105
g4
I01
sg5
Nsg6
(isrc.baseline_system.data.Page
Page
p106
(dp107
g4
I00
sg5
(lp108
Vfoe
p109
asg6
Nsg7
I33884873
sg8
VEnemy
p110
sbsg7
I33885248
sg8
g103
sbsVekantipur
p111
(isrc.baseline_system.data.Page
Page
p112
(dp113
g4
I00
sg5
Nsg6
Nsg7
I0
sg8
g111
sbsV8
p114
(isrc.baseline_system.data.Page
Page
p115
(dp116
g4
I00
sg5
(lp117
V\u2177
p118
aV\u0668
p119
aV\u09ee
p120
aV7.9
p121
aV\u2791
p122
aV\u277d
p123
aV\u0bee
p124
aVVIII
p125
aV8th
p126
aV\u096e
p127
aV\u2467
p128
aV\u248f
p129
aV2^3
p130
aV\u2787
p131
aV\u247b
p132
aV\u2826
p133
aVThe number 8
p134
aV\u24fc
p135
aV\u17e8
p136
aV\uff18
p137
aV\u06f8
p138
aV\u0a6e
p139
aVeight
p140
asg6
Nsg7
I208174
sg8
g114
sbsVon the ground
p141
(isrc.baseline_system.data.Page
Page
p142
(dp143
g4
I01
sg5
Nsg6
(isrc.baseline_system.data.Page
Page
p144
(dp145
g4
I00
sg5
Nsg6
Nsg7
I18565714
sg8
VFacts on the ground
p146
sbsg7
I24657843
sg8
g141
sbsVdozens
p147
(isrc.baseline_system.data.Page
Page
p148
(dp149
g4
I01
sg5
Nsg6
(isrc.baseline_system.data.Page
Page
p150
(dp151
g4
I00
sg5
(lp152
Vdoz
p153
aVdz
p154
aVgroup of 12
p155
asg6
Nsg7
I208154
sg8
VDozen
p156
sbsg7
I1074731
sg8
g147
sbsVwsvn-tv
p157
(isrc.baseline_system.data.Page
Page
p158
(dp159
g4
I00
sg5
Nsg6
Nsg7
I0
sg8
g157
sbsVPM
p160
(isrc.baseline_system.data.Page
Page
p161
(dp162
g4
I00
sg5
Nsg6
Nsg7
I272347
sg8
g160
sbsg110
g106
sVhead
p163
(isrc.baseline_system.data.Page
Page
p164
(dp165
g4
I00
sg5
(lp166
Vkephale
p167
aVheads
p168
aVkephal\u0113
p169
aVnoddles
p170
aVcephalic
p171
aVkephalikos
p172
aVcephalique
p173
asg6
Nsg7
I1209545
sg8
g163
sbsVfriday
p174
(isrc.baseline_system.data.Page
Page
p175
(dp176
g4
I00
sg5
(lp177
VFri
p178
asg6
Nsg7
I54632
sg8
g174
sbsVchristian
p179
(isrc.baseline_system.data.Page
Page
p180
(dp181
g4
I00
sg5
(lp182
VChristians
p183
asg6
Nsg7
I18337522
sg8
g179
sbsVbig
p184
(isrc.baseline_system.data.Page
Page
p185
(dp186
g4
I00
sg5
(lp187
VBIG
p188
asg6
Nsg7
I4844989
sg8
g184
sbsVdozens more
p189
(isrc.baseline_system.data.Page
Page
p190
(dp191
g4
I00
sg5
Nsg6
Nsg7
I0
sg8
g189
sbsVit
p192
(isrc.baseline_system.data.Page
Page
p193
(dp194
g4
I00
sg5
Nsg6
Nsg7
I74821
sg8
g192
sbsg146
g144
sVanti-damascus
p195
(isrc.baseline_system.data.Page
Page
p196
(dp197
g4
I00
sg5
Nsg6
Nsg7
I0
sg8
g195
sbsVaftermath
p198
(isrc.baseline_system.data.Page
Page
p199
(dp200
g4
I00
sg5
Nsg6
Nsg7
I549429
sg8
g198
sbsVone
p201
(isrc.baseline_system.data.Page
Page
p202
(dp203
g4
I01
sg5
Nsg6
g96
sg7
I1878512
sg8
g201
sbsVfifteen
p204
(isrc.baseline_system.data.Page
Page
p205
(dp206
g4
I01
sg5
Nsg6
(isrc.baseline_system.data.Page
Page
p207
(dp208
g4
I00
sg5
Nsg6
Nsg7
I10682185
sg8
V15
p209
sbsg7
I480075
sg8
g204
sbsVpeople
p210
(isrc.baseline_system.data.Page
Page
p211
(dp212
g4
I00
sg5
Nsg6
Nsg7
I3488351
sg8
g210
sbsV78
p213
(isrc.baseline_system.data.Page
Page
p214
(dp215
g4
I00
sg5
Nsg6
Nsg7
I38345688
sg8
g213
sbsVlebanese
p216
(isrc.baseline_system.data.Page
Page
p217
(dp218
g4
I00
sg5
Nsg6
Nsg7
I140321
sg8
g216
sbsVbeirut
p219
(isrc.baseline_system.data.Page
Page
p220
(dp221
g4
I00
sg5
Nsg6
Nsg7
I37428
sg8
g219
sbsg209
g207
sV58
p222
(isrc.baseline_system.data.Page
Page
p223
(dp224
g4
I00
sg5
Nsg6
Nsg7
I38345656
sg8
g222
sbsVcar
p225
(isrc.baseline_system.data.Page
Page
p226
(dp227
g4
I00
sg5
(lp228
Vcar
p229
aVautocar
p230
aVmotor car
p231
aVmotorcar
p232
aVautomobile car
p233
aVauto
p234
aVCar, automobile
p235
asg6
Nsg7
I13673345
sg8
g225
sbsVsassine
p236
(isrc.baseline_system.data.Page
Page
p237
(dp238
g4
I00
sg5
Nsg6
Nsg7
I54056766
sg8
g236
sbsVlarge
p239
(isrc.baseline_system.data.Page
Page
p240
(dp241
g4
I00
sg5
Nsg6
Nsg7
I7746610
sg8
g239
sbsVmassive
p242
(isrc.baseline_system.data.Page
Page
p243
(dp244
g4
I00
sg5
Nsg6
Nsg7
I2416566
sg8
g242
sbsVcentral beirut
p245
(isrc.baseline_system.data.Page
Page
p246
(dp247
g4
I00
sg5
Nsg6
Nsg7
I0
sg8
g245
sbsVsyria
p248
(isrc.baseline_system.data.Page
Page
p249
(dp250
g4
I00
sg5
(lp251
Vsy
p252
aV\U0001f1f8\U0001f1fe
p253
aVSyrian Arab Republic
p254
asg6
Nsg7
I7515849
sg8
g248
sbsVsecurity
p255
(isrc.baseline_system.data.Page
Page
p256
(dp257
g4
I00
sg5
Nsg6
Nsg7
I41684
sg8
g255
sbsVpm
p258
(isrc.baseline_system.data.Page
Page
p259
(dp260
g4
I01
sg5
Nsg6
g161
sg7
I82151
sg8
g258
sbsg156
g150
s.