(dp0
VUltranationalist
p1
(isrc.baseline_system.data.Page
Page
p2
(dp3
S'is_redirect'
p4
I01
sS'aliases'
p5
NsS'redirect_page'
p6
(isrc.baseline_system.data.Page
Page
p7
(dp8
g4
I00
sg5
Nsg6
NsS'pageid'
p9
I166280
sS'title'
p10
VUltranationalism
p11
sbsg9
I2691976
sg10
g1
sbsVBBC World News
p12
(isrc.baseline_system.data.Page
Page
p13
(dp14
g4
I00
sg5
Nsg6
Nsg9
I37613
sg10
g12
sbsVUltra Nationalist
p15
(isrc.baseline_system.data.Page
Page
p16
(dp17
g4
I00
sg5
Nsg6
Nsg9
I0
sg10
g15
sbsVRight-Wing
p18
(isrc.baseline_system.data.Page
Page
p19
(dp20
g4
I01
sg5
Nsg6
(isrc.baseline_system.data.Page
Page
p21
(dp22
g4
I00
sg5
Nsg6
Nsg9
I56522
sg10
VRight-wing politics
p23
sbsg9
I1111224
sg10
g18
sbsVavigdor lieberman
p24
(isrc.baseline_system.data.Page
Page
p25
(dp26
g4
I00
sg5
Nsg6
Nsg9
I0
sg10
g24
sbsVyahoo news
p27
(isrc.baseline_system.data.Page
Page
p28
(dp29
g4
I01
sg5
Nsg6
(isrc.baseline_system.data.Page
Page
p30
(dp31
g4
I00
sg5
Nsg6
Nsg9
I1560005
sg10
VYahoo! News
p32
sbsg9
I1602374
sg10
g27
sbsVReuters
p33
(isrc.baseline_system.data.Page
Page
p34
(dp35
g4
I00
sg5
Nsg6
Nsg9
I18998750
sg10
g33
sbsVYisrael Beytenu
p36
(isrc.baseline_system.data.Page
Page
p37
(dp38
g4
I01
sg5
Nsg6
(isrc.baseline_system.data.Page
Page
p39
(dp40
g4
I00
sg5
Nsg6
Nsg9
I1647061
sg10
VYisrael Beiteinu
p41
sbsg9
I5088908
sg10
g36
sbsVLikud Yisrael Beiteinu
p42
(isrc.baseline_system.data.Page
Page
p43
(dp44
g4
I00
sg5
Nsg6
Nsg9
I37441957
sg10
g42
sbsVUltranationalism
p45
(isrc.baseline_system.data.Page
Page
p46
(dp47
g4
I00
sg5
Nsg6
Nsg9
I166280
sg10
g45
sbsVjanuary 22
p48
(isrc.baseline_system.data.Page
Page
p49
(dp50
g4
I00
sg5
Nsg6
Nsg9
I15940
sg10
g48
sbsVToday
p51
(isrc.baseline_system.data.Page
Page
p52
(dp53
g4
I00
sg5
Nsg6
Nsg9
I206960
sg10
g51
sbsVliberman
p54
(isrc.baseline_system.data.Page
Page
p55
(dp56
g4
I00
sg5
Nsg6
Nsg9
I47759140
sg10
g54
sbsVbiberman
p57
(isrc.baseline_system.data.Page
Page
p58
(dp59
g4
I00
sg5
Nsg6
Nsg9
I30109807
sg10
g57
sbsVforeign minister lieberman
p60
(isrc.baseline_system.data.Page
Page
p61
(dp62
g4
I00
sg5
Nsg6
Nsg9
I0
sg10
g60
sbsVBbcworld
p63
(isrc.baseline_system.data.Page
Page
p64
(dp65
g4
I01
sg5
Nsg6
(isrc.baseline_system.data.Page
Page
p66
(dp67
g4
I00
sg5
Nsg6
Nsg9
I37613
sg10
VBBC World News
p68
sbsg9
I13468495
sg10
g63
sbsVreuters
p69
(isrc.baseline_system.data.Page
Page
p70
(dp71
g4
I00
sg5
Nsg6
Nsg9
I18998750
sg10
g69
sbsg32
g30
sVally
p72
(isrc.baseline_system.data.Page
Page
p73
(dp74
g4
I00
sg5
Nsg6
Nsg9
I207378
sg10
g72
sbsVArab citizens of Israel
p75
(isrc.baseline_system.data.Page
Page
p76
(dp77
g4
I00
sg5
Nsg6
Nsg9
I492331
sg10
g75
sbsVChristian Science Monitor
p78
(isrc.baseline_system.data.Page
Page
p79
(dp80
g4
I01
sg5
Nsg6
(isrc.baseline_system.data.Page
Page
p81
(dp82
g4
I00
sg5
Nsg6
Nsg9
I227687
sg10
VThe Christian Science Monitor
p83
sbsg9
I6415986
sg10
g78
sbsVgovernment
p84
(isrc.baseline_system.data.Page
Page
p85
(dp86
g4
I00
sg5
Nsg6
Nsg9
I12229
sg10
g84
sbsVright-wing
p87
(isrc.baseline_system.data.Page
Page
p88
(dp89
g4
I01
sg5
Nsg6
(isrc.baseline_system.data.Page
Page
p90
(dp91
g4
I00
sg5
Nsg6
Nsg9
I56522
sg10
VRight-wing politics
p92
sbsg9
I70373
sg10
g87
sbsVWhat Ever Position
p93
(isrc.baseline_system.data.Page
Page
p94
(dp95
g4
I00
sg5
Nsg6
Nsg9
I0
sg10
g93
sbsVUltranationalists
p96
(isrc.baseline_system.data.Page
Page
p97
(dp98
g4
I01
sg5
Nsg6
(isrc.baseline_system.data.Page
Page
p99
(dp100
g4
I00
sg5
Nsg6
Nsg9
I166280
sg10
VUltranationalism
p101
sbsg9
I2947731
sg10
g96
sbsVGideon Sa'ar
p102
(isrc.baseline_system.data.Page
Page
p103
(dp104
g4
I00
sg5
Nsg6
Nsg9
I485357
sg10
g102
sbsVPosition
p105
(isrc.baseline_system.data.Page
Page
p106
(dp107
g4
I00
sg5
Nsg6
Nsg9
I268217
sg10
g105
sbsVIsrael Beiteinu
p108
(isrc.baseline_system.data.Page
Page
p109
(dp110
g4
I01
sg5
Nsg6
(isrc.baseline_system.data.Page
Page
p111
(dp112
g4
I00
sg5
Nsg6
Nsg9
I1647061
sg10
VYisrael Beiteinu
p113
sbsg9
I11920174
sg10
g108
sbsVLikud Party
p114
(isrc.baseline_system.data.Page
Page
p115
(dp116
g4
I01
sg5
Nsg6
(isrc.baseline_system.data.Page
Page
p117
(dp118
g4
I00
sg5
Nsg6
Nsg9
I206984
sg10
VLikud
p119
sbsg9
I307121
sg10
g114
sbsVRight
p120
(isrc.baseline_system.data.Page
Page
p121
(dp122
g4
I01
sg5
Nsg6
(isrc.baseline_system.data.Page
Page
p123
(dp124
g4
I00
sg5
Nsg6
Nsg9
I51490
sg10
VRights
p125
sbsg9
I23737885
sg10
g120
sbsVBbc News
p126
(isrc.baseline_system.data.Page
Page
p127
(dp128
g4
I00
sg5
Nsg6
Nsg9
I0
sg10
g126
sbsVNetenyahu
p129
(isrc.baseline_system.data.Page
Page
p130
(dp131
g4
I01
sg5
Nsg6
(isrc.baseline_system.data.Page
Page
p132
(dp133
g4
I00
sg5
Nsg6
Nsg9
I56472
sg10
VBenjamin Netanyahu
p134
sbsg9
I45016780
sg10
g129
sbsVKnesset
p135
(isrc.baseline_system.data.Page
Page
p136
(dp137
g4
I00
sg5
Nsg6
Nsg9
I74656
sg10
g135
sbsVLiebermann
p138
(isrc.baseline_system.data.Page
Page
p139
(dp140
g4
I00
sg5
Nsg6
Nsg9
I2142963
sg10
g138
sbsVfar-right
p141
(isrc.baseline_system.data.Page
Page
p142
(dp143
g4
I01
sg5
Nsg6
(isrc.baseline_system.data.Page
Page
p144
(dp145
g4
I00
sg5
Nsg6
Nsg9
I221220
sg10
VFar-right politics
p146
sbsg9
I3436620
sg10
g141
sbsVjanuary
p147
(isrc.baseline_system.data.Page
Page
p148
(dp149
g4
I00
sg5
Nsg6
Nsg9
I15642
sg10
g147
sbsVYisrael Beitenu
p150
(isrc.baseline_system.data.Page
Page
p151
(dp152
g4
I01
sg5
Nsg6
(isrc.baseline_system.data.Page
Page
p153
(dp154
g4
I00
sg5
Nsg6
Nsg9
I1647061
sg10
VYisrael Beiteinu
p155
sbsg9
I4341655
sg10
g150
sbsVFurther
p156
(isrc.baseline_system.data.Page
Page
p157
(dp158
g4
I00
sg5
Nsg6
Nsg9
I16798213
sg10
g156
sbsVPM
p159
(isrc.baseline_system.data.Page
Page
p160
(dp161
g4
I00
sg5
Nsg6
Nsg9
I272347
sg10
g159
sbsVJanuary 22
p162
(isrc.baseline_system.data.Page
Page
p163
(dp164
g4
I00
sg5
Nsg6
Nsg9
I15940
sg10
g162
sbsVNetanyahu-Liberman
p165
(isrc.baseline_system.data.Page
Page
p166
(dp167
g4
I00
sg5
Nsg6
Nsg9
I0
sg10
g165
sbsVright
p168
(isrc.baseline_system.data.Page
Page
p169
(dp170
g4
I01
sg5
Nsg6
(isrc.baseline_system.data.Page
Page
p171
(dp172
g4
I00
sg5
Nsg6
Nsg9
I51490
sg10
VRights
p173
sbsg9
I23737885
sg10
g168
sbsVultra nationalist
p174
(isrc.baseline_system.data.Page
Page
p175
(dp176
g4
I01
sg5
Nsg6
(isrc.baseline_system.data.Page
Page
p177
(dp178
g4
I00
sg5
Nsg6
Nsg9
I21748
sg10
VNationalism
p179
sbsg9
I3325234
sg10
g174
sbsVLiberman
p180
(isrc.baseline_system.data.Page
Page
p181
(dp182
g4
I00
sg5
Nsg6
Nsg9
I47759140
sg10
g180
sbsVWest
p183
(isrc.baseline_system.data.Page
Page
p184
(dp185
g4
I00
sg5
Nsg6
Nsg9
I61026
sg10
g183
sbsVnetenyahu
p186
(isrc.baseline_system.data.Page
Page
p187
(dp188
g4
I01
sg5
Nsg6
(isrc.baseline_system.data.Page
Page
p189
(dp190
g4
I00
sg5
Nsg6
Nsg9
I56472
sg10
VBenjamin Netanyahu
p191
sbsg9
I45016780
sg10
g186
sbsVsex
p192
(isrc.baseline_system.data.Page
Page
p193
(dp194
g4
I00
sg5
Nsg6
Nsg9
I26805
sg10
g192
sbsVtoday
p195
(isrc.baseline_system.data.Page
Page
p196
(dp197
g4
I00
sg5
Nsg6
Nsg9
I206960
sg10
g195
sbsVwhat ever position
p198
(isrc.baseline_system.data.Page
Page
p199
(dp200
g4
I00
sg5
Nsg6
Nsg9
I0
sg10
g198
sbsVHard-Line
p201
(isrc.baseline_system.data.Page
Page
p202
(dp203
g4
I00
sg5
Nsg6
Nsg9
I0
sg10
g201
sbsVNew
p204
(isrc.baseline_system.data.Page
Page
p205
(dp206
g4
I00
sg5
Nsg6
Nsg9
I3001336
sg10
g204
sbsVPm
p207
(isrc.baseline_system.data.Page
Page
p208
(dp209
g4
I01
sg5
Nsg6
(isrc.baseline_system.data.Page
Page
p210
(dp211
g4
I00
sg5
Nsg6
Nsg9
I272347
sg10
VPM
p212
sbsg9
I82151
sg10
g207
sbsg146
g144
sVisraeli
p213
(isrc.baseline_system.data.Page
Page
p214
(dp215
g4
I01
sg5
Nsg6
(isrc.baseline_system.data.Page
Page
p216
(dp217
g4
I00
sg5
Nsg6
Nsg9
I181296
sg10
VIsraelis
p218
sbsg9
I15449
sg10
g213
sbsVUpcoming
p219
(isrc.baseline_system.data.Page
Page
p220
(dp221
g4
I00
sg5
Nsg6
Nsg9
I2909529
sg10
g219
sbsVGovernment
p222
(isrc.baseline_system.data.Page
Page
p223
(dp224
g4
I00
sg5
Nsg6
Nsg9
I12229
sg10
g222
sbsVyechimovich
p225
(isrc.baseline_system.data.Page
Page
p226
(dp227
g4
I00
sg5
Nsg6
Nsg9
I0
sg10
g225
sbsVnew
p228
(isrc.baseline_system.data.Page
Page
p229
(dp230
g4
I00
sg5
Nsg6
Nsg9
I3001336
sg10
g228
sbsVYisrael Beiteinu
p231
(isrc.baseline_system.data.Page
Page
p232
(dp233
g4
I00
sg5
Nsg6
Nsg9
I1647061
sg10
g231
sbsVHe
p234
(isrc.baseline_system.data.Page
Page
p235
(dp236
g4
I00
sg5
Nsg6
Nsg9
I225073
sg10
g234
sbsVNational security
p237
(isrc.baseline_system.data.Page
Page
p238
(dp239
g4
I00
sg5
Nsg6
Nsg9
I240468
sg10
g237
sbsVYvet
p240
(isrc.baseline_system.data.Page
Page
p241
(dp242
g4
I00
sg5
Nsg6
Nsg9
I0
sg10
g240
sbsg173
g171
sVw/avigdor lieberman
p243
(isrc.baseline_system.data.Page
Page
p244
(dp245
g4
I00
sg5
Nsg6
Nsg9
I0
sg10
g243
sbsVLieberman
p246
(isrc.baseline_system.data.Page
Page
p247
(dp248
g4
I01
sg5
Nsg6
(isrc.baseline_system.data.Page
Page
p249
(dp250
g4
I00
sg5
Nsg6
Nsg9
I2142963
sg10
VLiebermann
p251
sbsg9
I25023827
sg10
g246
sbsVYahoo News
p252
(isrc.baseline_system.data.Page
Page
p253
(dp254
g4
I01
sg5
Nsg6
(isrc.baseline_system.data.Page
Page
p255
(dp256
g4
I00
sg5
Nsg6
Nsg9
I1560005
sg10
VYahoo! News
p257
sbsg9
I3221595
sg10
g252
sbsVgideon saar
p258
(isrc.baseline_system.data.Page
Page
p259
(dp260
g4
I00
sg5
Nsg6
Nsg9
I0
sg10
g258
sbsVbbcworld
p261
(isrc.baseline_system.data.Page
Page
p262
(dp263
g4
I01
sg5
Nsg6
g13
sg9
I13468495
sg10
g261
sbsVGreatly
p264
(isrc.baseline_system.data.Page
Page
p265
(dp266
g4
I00
sg5
Nsg6
Nsg9
I0
sg10
g264
sbsg191
g189
sVisrael beiteinu
p267
(isrc.baseline_system.data.Page
Page
p268
(dp269
g4
I00
sg5
Nsg6
Nsg9
I0
sg10
g267
sbsVlikud party
p270
(isrc.baseline_system.data.Page
Page
p271
(dp272
g4
I01
sg5
Nsg6
(isrc.baseline_system.data.Page
Page
p273
(dp274
g4
I00
sg5
Nsg6
Nsg9
I206984
sg10
VLikud
p275
sbsg9
I3218535
sg10
g270
sbsVGideon Saar
p276
(isrc.baseline_system.data.Page
Page
p277
(dp278
g4
I01
sg5
Nsg6
g103
sg9
I19423916
sg10
g276
sbsVchristian science monitor
p279
(isrc.baseline_system.data.Page
Page
p280
(dp281
g4
I00
sg5
Nsg6
Nsg9
I0
sg10
g279
sbsVnational security
p282
(isrc.baseline_system.data.Page
Page
p283
(dp284
g4
I00
sg5
Nsg6
Nsg9
I240468
sg10
g282
sbsVLikud-Yisrael Beitenu
p285
(isrc.baseline_system.data.Page
Page
p286
(dp287
g4
I01
sg5
Nsg6
g43
sg9
I43584640
sg10
g285
sbsVBBC News
p288
(isrc.baseline_system.data.Page
Page
p289
(dp290
g4
I00
sg5
Nsg6
Nsg9
I1139893
sg10
g288
sbsVNational
p291
(isrc.baseline_system.data.Page
Page
p292
(dp293
g4
I00
sg5
Nsg6
Nsg9
I265559
sg10
g291
sbsVTwo Months Ago
p294
(isrc.baseline_system.data.Page
Page
p295
(dp296
g4
I00
sg5
Nsg6
Nsg9
I0
sg10
g294
sbsVlieberman
p297
(isrc.baseline_system.data.Page
Page
p298
(dp299
g4
I01
sg5
Nsg6
g139
sg9
I25023827
sg10
g297
sbsVIsraeli-Arab
p300
(isrc.baseline_system.data.Page
Page
p301
(dp302
g4
I01
sg5
Nsg6
g76
sg9
I8748724
sg10
g300
sbsVgreatly
p303
(isrc.baseline_system.data.Page
Page
p304
(dp305
g4
I00
sg5
Nsg6
Nsg9
I0
sg10
g303
sbsVLikud-Beitanu
p306
(isrc.baseline_system.data.Page
Page
p307
(dp308
g4
I00
sg5
Nsg6
Nsg9
I0
sg10
g306
sbsVTheir
p309
(isrc.baseline_system.data.Page
Page
p310
(dp311
g4
I01
sg5
Nsg6
(isrc.baseline_system.data.Page
Page
p312
(dp313
g4
I00
sg5
Nsg6
Nsg9
I962806
sg10
VThey
p314
sbsg9
I839880
sg10
g309
sbsVNetanyahu
p315
(isrc.baseline_system.data.Page
Page
p316
(dp317
g4
I01
sg5
Nsg6
(isrc.baseline_system.data.Page
Page
p318
(dp319
g4
I00
sg5
Nsg6
Nsg9
I56472
sg10
VBenjamin Netanyahu
p320
sbsg9
I52912979
sg10
g315
sbsVnational
p321
(isrc.baseline_system.data.Page
Page
p322
(dp323
g4
I00
sg5
Nsg6
Nsg9
I265559
sg10
g321
sbsVparties
p324
(isrc.baseline_system.data.Page
Page
p325
(dp326
g4
I01
sg5
Nsg6
(isrc.baseline_system.data.Page
Page
p327
(dp328
g4
I00
sg5
Nsg6
Nsg9
I23995
sg10
VParty
p329
sbsg9
I266134
sg10
g324
sbsVscandal
p330
(isrc.baseline_system.data.Page
Page
p331
(dp332
g4
I00
sg5
Nsg6
Nsg9
I146454
sg10
g330
sbsg92
g90
sVpm benjamin netanyahu
p333
(isrc.baseline_system.data.Page
Page
p334
(dp335
g4
I00
sg5
Nsg6
Nsg9
I0
sg10
g333
sbsVprime minister benjamin netanyahu
p336
(isrc.baseline_system.data.Page
Page
p337
(dp338
g4
I00
sg5
Nsg6
Nsg9
I0
sg10
g336
sbsVNational Security
p339
(isrc.baseline_system.data.Page
Page
p340
(dp341
g4
I01
sg5
Nsg6
g238
sg9
I2256945
sg10
g339
sbsVwest
p342
(isrc.baseline_system.data.Page
Page
p343
(dp344
g4
I00
sg5
Nsg6
Nsg9
I61026
sg10
g342
sbsVPrime minister
p345
(isrc.baseline_system.data.Page
Page
p346
(dp347
g4
I00
sg5
Nsg6
Nsg9
I24109
sg10
g345
sbsVhardline
p348
(isrc.baseline_system.data.Page
Page
p349
(dp350
g4
I00
sg5
Nsg6
Nsg9
I5713662
sg10
g348
sbsVtheir
p351
(isrc.baseline_system.data.Page
Page
p352
(dp353
g4
I01
sg5
Nsg6
(isrc.baseline_system.data.Page
Page
p354
(dp355
g4
I00
sg5
Nsg6
Nsg9
I962806
sg10
VThey
p356
sbsg9
I839880
sg10
g351
sbsVHardline
p357
(isrc.baseline_system.data.Page
Page
p358
(dp359
g4
I00
sg5
Nsg6
Nsg9
I5713662
sg10
g357
sbsVyisrael beiteinu
p360
(isrc.baseline_system.data.Page
Page
p361
(dp362
g4
I00
sg5
Nsg6
Nsg9
I0
sg10
g360
sbsVpm
p363
(isrc.baseline_system.data.Page
Page
p364
(dp365
g4
I01
sg5
Nsg6
g160
sg9
I82151
sg10
g363
sbsVisrael
p366
(isrc.baseline_system.data.Page
Page
p367
(dp368
g4
I00
sg5
Nsg6
Nsg9
I9282173
sg10
g366
sbsVupcoming
p369
(isrc.baseline_system.data.Page
Page
p370
(dp371
g4
I00
sg5
Nsg6
Nsg9
I2909529
sg10
g369
sbsVJanuary
p372
(isrc.baseline_system.data.Page
Page
p373
(dp374
g4
I00
sg5
Nsg6
Nsg9
I15642
sg10
g372
sbsVultranationalists
p375
(isrc.baseline_system.data.Page
Page
p376
(dp377
g4
I01
sg5
Nsg6
g46
sg9
I2947731
sg10
g375
sbsVnetanyahu
p378
(isrc.baseline_system.data.Page
Page
p379
(dp380
g4
I01
sg5
Nsg6
(isrc.baseline_system.data.Page
Page
p381
(dp382
g4
I00
sg5
Nsg6
Nsg9
I56472
sg10
VBenjamin Netanyahu
p383
sbsg9
I52912979
sg10
g378
sbsVap news
p384
(isrc.baseline_system.data.Page
Page
p385
(dp386
g4
I00
sg5
Nsg6
Nsg9
I0
sg10
g384
sbsVfm avigdor lieberman
p387
(isrc.baseline_system.data.Page
Page
p388
(dp389
g4
I00
sg5
Nsg6
Nsg9
I0
sg10
g387
sbsVyisrael beitenu
p390
(isrc.baseline_system.data.Page
Page
p391
(dp392
g4
I00
sg5
Nsg6
Nsg9
I0
sg10
g390
sbsVhe
p393
(isrc.baseline_system.data.Page
Page
p394
(dp395
g4
I00
sg5
Nsg6
Nsg9
I225073
sg10
g393
sbsVPrime Minister Benjamin Netanyahu
p396
(isrc.baseline_system.data.Page
Page
p397
(dp398
g4
I00
sg5
Nsg6
Nsg9
I0
sg10
g396
sbsVNationalist
p399
(isrc.baseline_system.data.Page
Page
p400
(dp401
g4
I01
sg5
Nsg6
(isrc.baseline_system.data.Page
Page
p402
(dp403
g4
I00
sg5
Nsg6
Nsg9
I21748
sg10
VNationalism
p404
sbsg9
I42376
sg10
g399
sbsVyvet
p405
(isrc.baseline_system.data.Page
Page
p406
(dp407
g4
I00
sg5
Nsg6
Nsg9
I0
sg10
g405
sbsg83
g81
sVW/Avigdor Lieberman
p408
(isrc.baseline_system.data.Page
Page
p409
(dp410
g4
I00
sg5
Nsg6
Nsg9
I0
sg10
g408
sbsVSex
p411
(isrc.baseline_system.data.Page
Page
p412
(dp413
g4
I00
sg5
Nsg6
Nsg9
I26805
sg10
g411
sbsVisraeli-arab
p414
(isrc.baseline_system.data.Page
Page
p415
(dp416
g4
I00
sg5
Nsg6
Nsg9
I0
sg10
g414
sbsVSubstantial
p417
(isrc.baseline_system.data.Page
Page
p418
(dp419
g4
I01
sg5
Nsg6
(isrc.baseline_system.data.Page
Page
p420
(dp421
g4
I00
sg5
Nsg6
Nsg9
I41559215
sg10
VSubstantial (rapper)
p422
sbsg9
I9232570
sg10
g417
sbsVultra-nationalist
p423
(isrc.baseline_system.data.Page
Page
p424
(dp425
g4
I01
sg5
Nsg6
(isrc.baseline_system.data.Page
Page
p426
(dp427
g4
I00
sg5
Nsg6
Nsg9
I166280
sg10
VUltranationalism
p428
sbsg9
I562595
sg10
g423
sbsVlikud-beitanu
p429
(isrc.baseline_system.data.Page
Page
p430
(dp431
g4
I00
sg5
Nsg6
Nsg9
I0
sg10
g429
sbsg179
g177
sVIsraeli
p432
(isrc.baseline_system.data.Page
Page
p433
(dp434
g4
I01
sg5
Nsg6
(isrc.baseline_system.data.Page
Page
p435
(dp436
g4
I00
sg5
Nsg6
Nsg9
I181296
sg10
VIsraelis
p437
sbsg9
I15449
sg10
g432
sbsVnationalist
p438
(isrc.baseline_system.data.Page
Page
p439
(dp440
g4
I01
sg5
Nsg6
(isrc.baseline_system.data.Page
Page
p441
(dp442
g4
I00
sg5
Nsg6
Nsg9
I21748
sg10
VNationalism
p443
sbsg9
I42376
sg10
g438
sbsVlikud-yisrael beitenu
p444
(isrc.baseline_system.data.Page
Page
p445
(dp446
g4
I00
sg5
Nsg6
Nsg9
I0
sg10
g444
sbsVknesset
p447
(isrc.baseline_system.data.Page
Page
p448
(dp449
g4
I00
sg5
Nsg6
Nsg9
I74656
sg10
g447
sbsVhard-line
p450
(isrc.baseline_system.data.Page
Page
p451
(dp452
g4
I01
sg5
Nsg6
g358
sg9
I4550495
sg10
g450
sbsVPrime Minister
p453
(isrc.baseline_system.data.Page
Page
p454
(dp455
g4
I01
sg5
Nsg6
g346
sg9
I6810276
sg10
g453
sbsVYechimovich
p456
(isrc.baseline_system.data.Page
Page
p457
(dp458
g4
I00
sg5
Nsg6
Nsg9
I0
sg10
g456
sbsVBiberman
p459
(isrc.baseline_system.data.Page
Page
p460
(dp461
g4
I00
sg5
Nsg6
Nsg9
I30109807
sg10
g459
sbsVap
p462
(isrc.baseline_system.data.Page
Page
p463
(dp464
g4
I01
sg5
Nsg6
(isrc.baseline_system.data.Page
Page
p465
(dp466
g4
I00
sg5
Nsg6
Nsg9
I1760006
sg10
VAP
p467
sbsg9
I25009347
sg10
g462
sbsVsubstantial
p468
(isrc.baseline_system.data.Page
Page
p469
(dp470
g4
I01
sg5
Nsg6
(isrc.baseline_system.data.Page
Page
p471
(dp472
g4
I00
sg5
Nsg6
Nsg9
I41559215
sg10
VSubstantial (rapper)
p473
sbsg9
I9232570
sg10
g468
sbsVyisrael beytenu
p474
(isrc.baseline_system.data.Page
Page
p475
(dp476
g4
I00
sg5
Nsg6
Nsg9
I0
sg10
g474
sbsVfurther
p477
(isrc.baseline_system.data.Page
Page
p478
(dp479
g4
I00
sg5
Nsg6
Nsg9
I16798213
sg10
g477
sbsVParty
p480
(isrc.baseline_system.data.Page
Page
p481
(dp482
g4
I00
sg5
Nsg6
Nsg9
I23995
sg10
g480
sbsVAlly
p483
(isrc.baseline_system.data.Page
Page
p484
(dp485
g4
I00
sg5
Nsg6
Nsg9
I207378
sg10
g483
sbsVultranationalist
p486
(isrc.baseline_system.data.Page
Page
p487
(dp488
g4
I01
sg5
Nsg6
(isrc.baseline_system.data.Page
Page
p489
(dp490
g4
I00
sg5
Nsg6
Nsg9
I166280
sg10
VUltranationalism
p491
sbsg9
I2691976
sg10
g486
sbsVIsrael
p492
(isrc.baseline_system.data.Page
Page
p493
(dp494
g4
I00
sg5
Nsg6
Nsg9
I9282173
sg10
g492
sbsVPm Benjamin Netanyahu
p495
(isrc.baseline_system.data.Page
Page
p496
(dp497
g4
I00
sg5
Nsg6
Nsg9
I0
sg10
g495
sbsVnetanyahu-liberman
p498
(isrc.baseline_system.data.Page
Page
p499
(dp500
g4
I00
sg5
Nsg6
Nsg9
I0
sg10
g498
sbsVtwo months ago
p501
(isrc.baseline_system.data.Page
Page
p502
(dp503
g4
I00
sg5
Nsg6
Nsg9
I0
sg10
g501
sbsVFar-Right
p504
(isrc.baseline_system.data.Page
Page
p505
(dp506
g4
I01
sg5
Nsg6
(isrc.baseline_system.data.Page
Page
p507
(dp508
g4
I00
sg5
Nsg6
Nsg9
I221220
sg10
VFar-right politics
p509
sbsg9
I2003487
sg10
g504
sbsg218
g216
sg356
g354
sVparty
p510
(isrc.baseline_system.data.Page
Page
p511
(dp512
g4
I00
sg5
Nsg6
Nsg9
I23995
sg10
g510
sbsVbbc news
p513
(isrc.baseline_system.data.Page
Page
p514
(dp515
g4
I01
sg5
Nsg6
g289
sg9
I1439078
sg10
g513
sbsVUltra-Nationalist
p516
(isrc.baseline_system.data.Page
Page
p517
(dp518
g4
I00
sg5
Nsg6
Nsg9
I0
sg10
g516
sbsVprime minister
p519
(isrc.baseline_system.data.Page
Page
p520
(dp521
g4
I00
sg5
Nsg6
Nsg9
I24109
sg10
g519
sbsVAvigdor Lieberman
p522
(isrc.baseline_system.data.Page
Page
p523
(dp524
g4
I00
sg5
Nsg6
Nsg9
I1704303
sg10
g522
sbsVForeign Minister Lieberman
p525
(isrc.baseline_system.data.Page
Page
p526
(dp527
g4
I00
sg5
Nsg6
Nsg9
I0
sg10
g525
sbsg467
g465
sVLikud
p528
(isrc.baseline_system.data.Page
Page
p529
(dp530
g4
I00
sg5
Nsg6
Nsg9
I206984
sg10
g528
sbsVposition
p531
(isrc.baseline_system.data.Page
Page
p532
(dp533
g4
I00
sg5
Nsg6
Nsg9
I268217
sg10
g531
sbsVAp News
p534
(isrc.baseline_system.data.Page
Page
p535
(dp536
g4
I00
sg5
Nsg6
Nsg9
I0
sg10
g534
sbsVAp
p537
(isrc.baseline_system.data.Page
Page
p538
(dp539
g4
I01
sg5
Nsg6
(isrc.baseline_system.data.Page
Page
p540
(dp541
g4
I00
sg5
Nsg6
Nsg9
I1760006
sg10
VAP
p542
sbsg9
I25009347
sg10
g537
sbsVlikud
p543
(isrc.baseline_system.data.Page
Page
p544
(dp545
g4
I00
sg5
Nsg6
Nsg9
I206984
sg10
g543
sbsg473
g471
sVParties
p546
(isrc.baseline_system.data.Page
Page
p547
(dp548
g4
I01
sg5
Nsg6
(isrc.baseline_system.data.Page
Page
p549
(dp550
g4
I00
sg5
Nsg6
Nsg9
I23995
sg10
VParty
p551
sbsg9
I266134
sg10
g546
sbsVFm Avigdor Lieberman
p552
(isrc.baseline_system.data.Page
Page
p553
(dp554
g4
I00
sg5
Nsg6
Nsg9
I0
sg10
g552
sbsVScandal
p555
(isrc.baseline_system.data.Page
Page
p556
(dp557
g4
I00
sg5
Nsg6
Nsg9
I146454
sg10
g555
sbs.