(dp0
VBBC World News
p1
(isrc.baseline_system.data.Page
Page
p2
(dp3
S'is_redirect'
p4
I00
sS'aliases'
p5
(lp6
VBBC World Service Television
p7
aVBBC World
p8
asS'redirect_page'
p9
NsS'pageid'
p10
I37613
sS'title'
p11
g1
sbsVavigdor lieberman
p12
(isrc.baseline_system.data.Page
Page
p13
(dp14
g4
I00
sg5
Nsg9
Nsg10
I0
sg11
g12
sbsVyahoo news
p15
(isrc.baseline_system.data.Page
Page
p16
(dp17
g4
I01
sg5
Nsg9
(isrc.baseline_system.data.Page
Page
p18
(dp19
g4
I00
sg5
(lp20
VYahoo News
p21
asg9
Nsg10
I1560005
sg11
VYahoo! News
p22
sbsg10
I1602374
sg11
g15
sbsVUltranationalism
p23
(isrc.baseline_system.data.Page
Page
p24
(dp25
g4
I00
sg5
(lp26
Vnationalism
p27
asg9
Nsg10
I166280
sg11
g23
sbsVjanuary 22
p28
(isrc.baseline_system.data.Page
Page
p29
(dp30
g4
I00
sg5
(lp31
V22 January
p32
aVJanuary 22nd
p33
aV22nd of January
p34
aVJan 22
p35
asg9
Nsg10
I15940
sg11
g28
sbsVliberman
p36
(isrc.baseline_system.data.Page
Page
p37
(dp38
g4
I00
sg5
Nsg9
Nsg10
I47759140
sg11
g36
sbsVbiberman
p39
(isrc.baseline_system.data.Page
Page
p40
(dp41
g4
I00
sg5
Nsg9
Nsg10
I30109807
sg11
g39
sbsVforeign minister lieberman
p42
(isrc.baseline_system.data.Page
Page
p43
(dp44
g4
I00
sg5
Nsg9
Nsg10
I0
sg11
g42
sbsVreuters
p45
(isrc.baseline_system.data.Page
Page
p46
(dp47
g4
I00
sg5
Nsg9
Nsg10
I18998750
sg11
g45
sbsg22
g18
sVally
p48
(isrc.baseline_system.data.Page
Page
p49
(dp50
g4
I00
sg5
Nsg9
Nsg10
I207378
sg11
g48
sbsVgovernment
p51
(isrc.baseline_system.data.Page
Page
p52
(dp53
g4
I00
sg5
Nsg9
Nsg10
I12229
sg11
g51
sbsVprime minister
p54
(isrc.baseline_system.data.Page
Page
p55
(dp56
g4
I00
sg5
(lp57
Vfirst minister
p58
aVP.M.
p59
asg9
Nsg10
I24109
sg11
g54
sbsVjanuary
p60
(isrc.baseline_system.data.Page
Page
p61
(dp62
g4
I00
sg5
(lp63
VJan
p64
aV1. month
p65
asg9
Nsg10
I15642
sg11
g60
sbsVLiebermann
p66
(isrc.baseline_system.data.Page
Page
p67
(dp68
g4
I00
sg5
Nsg9
Nsg10
I2142963
sg11
g66
sbsVfar-right
p69
(isrc.baseline_system.data.Page
Page
p70
(dp71
g4
I01
sg5
Nsg9
(isrc.baseline_system.data.Page
Page
p72
(dp73
g4
I00
sg5
(lp74
Vfar right
p75
aVextreme right
p76
aVfar-right politics
p77
asg9
Nsg10
I221220
sg11
VFar-right politics
p78
sbsg10
I3436620
sg11
g69
sbsVright
p79
(isrc.baseline_system.data.Page
Page
p80
(dp81
g4
I01
sg5
Nsg9
(isrc.baseline_system.data.Page
Page
p82
(dp83
g4
I00
sg5
Nsg9
Nsg10
I51490
sg11
VRights
p84
sbsg10
I23737885
sg11
g79
sbsVultra nationalist
p85
(isrc.baseline_system.data.Page
Page
p86
(dp87
g4
I01
sg5
Nsg9
(isrc.baseline_system.data.Page
Page
p88
(dp89
g4
I00
sg5
Nsg9
Nsg10
I21748
sg11
VNationalism
p90
sbsg10
I3325234
sg11
g85
sbsVnetenyahu
p91
(isrc.baseline_system.data.Page
Page
p92
(dp93
g4
I01
sg5
Nsg9
(isrc.baseline_system.data.Page
Page
p94
(dp95
g4
I00
sg5
(lp96
VBibi
p97
aVBibi Netanyahu
p98
aVBenyamin Netanyahu
p99
aVBenjamin "Bibi" Netanyahu
p100
aVBinyamin Netanyahu
p101
aVNetanyahu, Benjamin
p102
aVBen Nitay
p103
asg9
Nsg10
I56472
sg11
VBenjamin Netanyahu
p104
sbsg10
I45016780
sg11
g91
sbsVsex
p105
(isrc.baseline_system.data.Page
Page
p106
(dp107
g4
I00
sg5
Nsg9
Nsg10
I26805
sg11
g105
sbsVtoday
p108
(isrc.baseline_system.data.Page
Page
p109
(dp110
g4
I00
sg5
Nsg9
Nsg10
I206960
sg11
g108
sbsVwhat ever position
p111
(isrc.baseline_system.data.Page
Page
p112
(dp113
g4
I00
sg5
Nsg9
Nsg10
I0
sg11
g111
sbsVhard-line
p114
(isrc.baseline_system.data.Page
Page
p115
(dp116
g4
I01
sg5
Nsg9
(isrc.baseline_system.data.Page
Page
p117
(dp118
g4
I00
sg5
Nsg9
Nsg10
I5713662
sg11
VHardline
p119
sbsg10
I4550495
sg11
g114
sbsVfurther
p120
(isrc.baseline_system.data.Page
Page
p121
(dp122
g4
I00
sg5
Nsg9
Nsg10
I16798213
sg11
g120
sbsg78
g72
sVisraeli
p123
(isrc.baseline_system.data.Page
Page
p124
(dp125
g4
I01
sg5
Nsg9
(isrc.baseline_system.data.Page
Page
p126
(dp127
g4
I00
sg5
(lp128
VIsraeli
p129
asg9
Nsg10
I181296
sg11
VIsraelis
p130
sbsg10
I15449
sg11
g123
sbsVyechimovich
p131
(isrc.baseline_system.data.Page
Page
p132
(dp133
g4
I00
sg5
Nsg9
Nsg10
I0
sg11
g131
sbsVnew
p134
(isrc.baseline_system.data.Page
Page
p135
(dp136
g4
I00
sg5
Nsg9
Nsg10
I3001336
sg11
g134
sbsVPM
p137
(isrc.baseline_system.data.Page
Page
p138
(dp139
g4
I00
sg5
Nsg9
Nsg10
I272347
sg11
g137
sbsg84
g82
sVw/avigdor lieberman
p140
(isrc.baseline_system.data.Page
Page
p141
(dp142
g4
I00
sg5
Nsg9
Nsg10
I0
sg11
g140
sbsVgideon saar
p143
(isrc.baseline_system.data.Page
Page
p144
(dp145
g4
I00
sg5
Nsg9
Nsg10
I0
sg11
g143
sbsVbbcworld
p146
(isrc.baseline_system.data.Page
Page
p147
(dp148
g4
I01
sg5
Nsg9
g2
sg10
I13468495
sg11
g146
sbsVhardline
p149
(isrc.baseline_system.data.Page
Page
p150
(dp151
g4
I00
sg5
Nsg9
Nsg10
I5713662
sg11
g149
sbsVisrael beiteinu
p152
(isrc.baseline_system.data.Page
Page
p153
(dp154
g4
I00
sg5
Nsg9
Nsg10
I0
sg11
g152
sbsVlikud party
p155
(isrc.baseline_system.data.Page
Page
p156
(dp157
g4
I01
sg5
Nsg9
(isrc.baseline_system.data.Page
Page
p158
(dp159
g4
I00
sg5
(lp160
VLikud
p161
asg9
Nsg10
I206984
sg11
VLikud
p162
sbsg10
I3218535
sg11
g155
sbsVyisrael beitenu
p163
(isrc.baseline_system.data.Page
Page
p164
(dp165
g4
I00
sg5
Nsg9
Nsg10
I0
sg11
g163
sbsVnational security
p166
(isrc.baseline_system.data.Page
Page
p167
(dp168
g4
I00
sg5
Nsg9
Nsg10
I240468
sg11
g166
sbsg90
g88
sVlieberman
p169
(isrc.baseline_system.data.Page
Page
p170
(dp171
g4
I01
sg5
Nsg9
g67
sg10
I25023827
sg11
g169
sbsVgreatly
p172
(isrc.baseline_system.data.Page
Page
p173
(dp174
g4
I00
sg5
Nsg9
Nsg10
I0
sg11
g172
sbsVnational
p175
(isrc.baseline_system.data.Page
Page
p176
(dp177
g4
I00
sg5
Nsg9
Nsg10
I265559
sg11
g175
sbsVparties
p178
(isrc.baseline_system.data.Page
Page
p179
(dp180
g4
I01
sg5
Nsg9
(isrc.baseline_system.data.Page
Page
p181
(dp182
g4
I00
sg5
Nsg9
Nsg10
I23995
sg11
VParty
p183
sbsg10
I266134
sg11
g178
sbsVscandal
p184
(isrc.baseline_system.data.Page
Page
p185
(dp186
g4
I00
sg5
Nsg9
Nsg10
I146454
sg11
g184
sbsVRight-wing politics
p187
(isrc.baseline_system.data.Page
Page
p188
(dp189
g4
I00
sg5
(lp190
Vright-wing politics
p191
asg9
Nsg10
I56522
sg11
g187
sbsVpm benjamin netanyahu
p192
(isrc.baseline_system.data.Page
Page
p193
(dp194
g4
I00
sg5
Nsg9
Nsg10
I0
sg11
g192
sbsVprime minister benjamin netanyahu
p195
(isrc.baseline_system.data.Page
Page
p196
(dp197
g4
I00
sg5
Nsg9
Nsg10
I0
sg11
g195
sbsVwest
p198
(isrc.baseline_system.data.Page
Page
p199
(dp200
g4
I00
sg5
(lp201
VW
p202
asg9
Nsg10
I61026
sg11
g198
sbsg104
g94
sVtheir
p203
(isrc.baseline_system.data.Page
Page
p204
(dp205
g4
I01
sg5
Nsg9
(isrc.baseline_system.data.Page
Page
p206
(dp207
g4
I00
sg5
(lp208
Vthem
p209
aVthemselves
p210
aVtheir
p211
aVtheirs
p212
asg9
Nsg10
I962806
sg11
VThey
p213
sbsg10
I839880
sg11
g203
sbsg119
g117
sVyisrael beiteinu
p214
(isrc.baseline_system.data.Page
Page
p215
(dp216
g4
I00
sg5
Nsg9
Nsg10
I0
sg11
g214
sbsVpm
p217
(isrc.baseline_system.data.Page
Page
p218
(dp219
g4
I01
sg5
Nsg9
g138
sg10
I82151
sg11
g217
sbsVisrael
p220
(isrc.baseline_system.data.Page
Page
p221
(dp222
g4
I00
sg5
(lp223
VState of Israel
p224
aVil
p225
aV\U0001f1ee\U0001f1f1
p226
aVHoly Land
p227
asg9
Nsg10
I9282173
sg11
g220
sbsVupcoming
p228
(isrc.baseline_system.data.Page
Page
p229
(dp230
g4
I00
sg5
Nsg9
Nsg10
I2909529
sg11
g228
sbsVultranationalists
p231
(isrc.baseline_system.data.Page
Page
p232
(dp233
g4
I01
sg5
Nsg9
g24
sg10
I2947731
sg11
g231
sbsVnetanyahu
p234
(isrc.baseline_system.data.Page
Page
p235
(dp236
g4
I01
sg5
Nsg9
(isrc.baseline_system.data.Page
Page
p237
(dp238
g4
I00
sg5
(lp239
VBibi
p240
aVBibi Netanyahu
p241
aVBenyamin Netanyahu
p242
aVBenjamin "Bibi" Netanyahu
p243
aVBinyamin Netanyahu
p244
aVNetanyahu, Benjamin
p245
aVBen Nitay
p246
asg9
Nsg10
I56472
sg11
VBenjamin Netanyahu
p247
sbsg10
I52912979
sg11
g234
sbsVap news
p248
(isrc.baseline_system.data.Page
Page
p249
(dp250
g4
I00
sg5
Nsg9
Nsg10
I0
sg11
g248
sbsVfm avigdor lieberman
p251
(isrc.baseline_system.data.Page
Page
p252
(dp253
g4
I00
sg5
Nsg9
Nsg10
I0
sg11
g251
sbsVchristian science monitor
p254
(isrc.baseline_system.data.Page
Page
p255
(dp256
g4
I00
sg5
Nsg9
Nsg10
I0
sg11
g254
sbsVhe
p257
(isrc.baseline_system.data.Page
Page
p258
(dp259
g4
I00
sg5
(lp260
Vhim
p261
aVhimself
p262
aVhis
p263
asg9
Nsg10
I225073
sg11
g257
sbsVyvet
p264
(isrc.baseline_system.data.Page
Page
p265
(dp266
g4
I00
sg5
Nsg9
Nsg10
I0
sg11
g264
sbsVisraeli-arab
p267
(isrc.baseline_system.data.Page
Page
p268
(dp269
g4
I00
sg5
Nsg9
Nsg10
I0
sg11
g267
sbsVultra-nationalist
p270
(isrc.baseline_system.data.Page
Page
p271
(dp272
g4
I01
sg5
Nsg9
(isrc.baseline_system.data.Page
Page
p273
(dp274
g4
I00
sg5
(lp275
Vnationalism
p276
asg9
Nsg10
I166280
sg11
VUltranationalism
p277
sbsg10
I562595
sg11
g270
sbsVlikud-beitanu
p278
(isrc.baseline_system.data.Page
Page
p279
(dp280
g4
I00
sg5
Nsg9
Nsg10
I0
sg11
g278
sbsVBBC News
p281
(isrc.baseline_system.data.Page
Page
p282
(dp283
g4
I00
sg5
Nsg9
Nsg10
I1139893
sg11
g281
sbsVnationalist
p284
(isrc.baseline_system.data.Page
Page
p285
(dp286
g4
I01
sg5
Nsg9
(isrc.baseline_system.data.Page
Page
p287
(dp288
g4
I00
sg5
Nsg9
Nsg10
I21748
sg11
VNationalism
p289
sbsg10
I42376
sg11
g284
sbsVlikud-yisrael beitenu
p290
(isrc.baseline_system.data.Page
Page
p291
(dp292
g4
I00
sg5
Nsg9
Nsg10
I0
sg11
g290
sbsVknesset
p293
(isrc.baseline_system.data.Page
Page
p294
(dp295
g4
I00
sg5
Nsg9
Nsg10
I74656
sg11
g293
sbsVap
p296
(isrc.baseline_system.data.Page
Page
p297
(dp298
g4
I01
sg5
Nsg9
(isrc.baseline_system.data.Page
Page
p299
(dp300
g4
I00
sg5
Nsg9
Nsg10
I1760006
sg11
VAP
p301
sbsg10
I25009347
sg11
g296
sbsVsubstantial
p302
(isrc.baseline_system.data.Page
Page
p303
(dp304
g4
I01
sg5
Nsg9
(isrc.baseline_system.data.Page
Page
p305
(dp306
g4
I00
sg5
Nsg9
Nsg10
I41559215
sg11
VSubstantial (rapper)
p307
sbsg10
I9232570
sg11
g302
sbsVyisrael beytenu
p308
(isrc.baseline_system.data.Page
Page
p309
(dp310
g4
I00
sg5
Nsg9
Nsg10
I0
sg11
g308
sbsg183
g181
sVultranationalist
p311
(isrc.baseline_system.data.Page
Page
p312
(dp313
g4
I01
sg5
Nsg9
(isrc.baseline_system.data.Page
Page
p314
(dp315
g4
I00
sg5
(lp316
Vnationalism
p317
asg9
Nsg10
I166280
sg11
VUltranationalism
p318
sbsg10
I2691976
sg11
g311
sbsVnetanyahu-liberman
p319
(isrc.baseline_system.data.Page
Page
p320
(dp321
g4
I00
sg5
Nsg9
Nsg10
I0
sg11
g319
sbsVtwo months ago
p322
(isrc.baseline_system.data.Page
Page
p323
(dp324
g4
I00
sg5
Nsg9
Nsg10
I0
sg11
g322
sbsg307
g305
sg130
g126
sg213
g206
sVparty
p325
(isrc.baseline_system.data.Page
Page
p326
(dp327
g4
I00
sg5
Nsg9
Nsg10
I23995
sg11
g325
sbsVbbc news
p328
(isrc.baseline_system.data.Page
Page
p329
(dp330
g4
I01
sg5
Nsg9
g282
sg10
I1439078
sg11
g328
sbsVright-wing
p331
(isrc.baseline_system.data.Page
Page
p332
(dp333
g4
I01
sg5
Nsg9
g188
sg10
I70373
sg11
g331
sbsg301
g299
sg162
g158
sVlikud
p334
(isrc.baseline_system.data.Page
Page
p335
(dp336
g4
I00
sg5
(lp337
VLikud
p338
asg9
Nsg10
I206984
sg11
g334
sbsVposition
p339
(isrc.baseline_system.data.Page
Page
p340
(dp341
g4
I00
sg5
Nsg9
Nsg10
I268217
sg11
g339
sbs.