(dp0
V362 days later
p1
(isrc.baseline_system.data.Page
Page
p2
(dp3
S'is_redirect'
p4
I00
sS'aliases'
p5
NsS'redirect_page'
p6
NsS'pageid'
p7
I0
sS'title'
p8
g1
sbsVcurley
p9
(isrc.baseline_system.data.Page
Page
p10
(dp11
g4
I01
sg5
Nsg6
(isrc.baseline_system.data.Page
Page
p12
(dp13
g4
I00
sg5
Nsg6
Nsg7
I1591788
sg8
VCurly
p14
sbsg7
I30931081
sg8
g9
sbsVex-president
p15
(isrc.baseline_system.data.Page
Page
p16
(dp17
g4
I00
sg5
Nsg6
Nsg7
I0
sg8
g15
sbsVESPN
p18
(isrc.baseline_system.data.Page
Page
p19
(dp20
g4
I00
sg5
(lp21
VEntertainment and Sports Programming Network
p22
asg6
Nsg7
I77795
sg8
g18
sbsVOSU
p23
(isrc.baseline_system.data.Page
Page
p24
(dp25
g4
I00
sg5
Nsg6
Nsg7
I414143
sg8
g23
sbsVother counts
p26
(isrc.baseline_system.data.Page
Page
p27
(dp28
g4
I00
sg5
Nsg6
Nsg7
I0
sg8
g26
sbsVcrimes
p29
(isrc.baseline_system.data.Page
Page
p30
(dp31
g4
I01
sg5
Nsg6
(isrc.baseline_system.data.Page
Page
p32
(dp33
g4
I00
sg5
(lp34
Vcriminal offence
p35
aVoffence
p36
aVoffense
p37
aVhoodlum
p38
asg6
Nsg7
I5785
sg8
VCrime
p39
sbsg7
I448625
sg8
g29
sbsVosu
p40
(isrc.baseline_system.data.Page
Page
p41
(dp42
g4
I01
sg5
Nsg6
g24
sg7
I20697062
sg8
g40
sbsVDetail
p43
(isrc.baseline_system.data.Page
Page
p44
(dp45
g4
I00
sg5
Nsg6
Nsg7
I5942133
sg8
g43
sbsVImmediately (law)
p46
(isrc.baseline_system.data.Page
Page
p47
(dp48
g4
I00
sg5
Nsg6
Nsg7
I23532929
sg8
g46
sbsVCrime
p49
(isrc.baseline_system.data.Page
Page
p50
(dp51
g4
I00
sg5
(lp52
Vcriminal offence
p53
aVoffence
p54
aVoffense
p55
aVhoodlum
p56
asg6
Nsg7
I5785
sg8
g49
sbsVap
p57
(isrc.baseline_system.data.Page
Page
p58
(dp59
g4
I01
sg5
Nsg6
(isrc.baseline_system.data.Page
Page
p60
(dp61
g4
I00
sg5
Nsg6
Nsg7
I1760006
sg8
VAP
p62
sbsg7
I25009347
sg8
g57
sbsVtoday
p63
(isrc.baseline_system.data.Page
Page
p64
(dp65
g4
I00
sg5
Nsg6
Nsg7
I206960
sg8
g63
sbsVpennsylvania
p66
(isrc.baseline_system.data.Page
Page
p67
(dp68
g4
I00
sg5
(lp69
VCommonwealth of Pennsylvania
p70
aVPennsylvania, United States
p71
aVState of Pennsylvania
p72
aVKeystone State
p73
aVPA
p74
aVPenna
p75
asg6
Nsg7
I23332
sg8
g66
sbsVwashington post
p76
(isrc.baseline_system.data.Page
Page
p77
(dp78
g4
I01
sg5
Nsg6
(isrc.baseline_system.data.Page
Page
p79
(dp80
g4
I00
sg5
(lp81
VWashington Post
p82
aVWAPO
p83
aVWaPo
p84
aVwashingtonpost.com
p85
asg6
Nsg7
I102226
sg8
VThe Washington Post
p86
sbsg7
I1317866
sg8
g76
sbsVpresident graham spainer
p87
(isrc.baseline_system.data.Page
Page
p88
(dp89
g4
I00
sg5
Nsg6
Nsg7
I0
sg8
g87
sbsVattorney general linda kelly
p90
(isrc.baseline_system.data.Page
Page
p91
(dp92
g4
I00
sg5
Nsg6
Nsg7
I0
sg8
g90
sbsVchildren
p93
(isrc.baseline_system.data.Page
Page
p94
(dp95
g4
I01
sg5
Nsg6
(isrc.baseline_system.data.Page
Page
p96
(dp97
g4
I00
sg5
(lp98
Vchildren
p99
asg6
Nsg7
I128987
sg8
VChild
p100
sbsg7
I192624
sg8
g93
sbsVAdministrator
p101
(isrc.baseline_system.data.Page
Page
p102
(dp103
g4
I00
sg5
Nsg6
Nsg7
I420123
sg8
g101
sbsVpres graham spanier
p104
(isrc.baseline_system.data.Page
Page
p105
(dp106
g4
I00
sg5
Nsg6
Nsg7
I0
sg8
g104
sbsVex-president spanier
p107
(isrc.baseline_system.data.Page
Page
p108
(dp109
g4
I00
sg5
Nsg6
Nsg7
I0
sg8
g107
sbsVespn
p110
(isrc.baseline_system.data.Page
Page
p111
(dp112
g4
I01
sg5
Nsg6
g19
sg7
I5915300
sg8
g110
sbsVsandusky
p113
(isrc.baseline_system.data.Page
Page
p114
(dp115
g4
I00
sg5
Nsg6
Nsg7
I70112
sg8
g113
sbsVfmr
p116
(isrc.baseline_system.data.Page
Page
p117
(dp118
g4
I00
sg5
Nsg6
Nsg7
I0
sg8
g116
sbsVathletic director tim curley
p119
(isrc.baseline_system.data.Page
Page
p120
(dp121
g4
I00
sg5
Nsg6
Nsg7
I0
sg8
g119
sbsVformer
p122
(isrc.baseline_system.data.Page
Page
p123
(dp124
g4
I00
sg5
Nsg6
Nsg7
I1557765
sg8
g122
sbsVreuters
p125
(isrc.baseline_system.data.Page
Page
p126
(dp127
g4
I00
sg5
Nsg6
Nsg7
I18998750
sg8
g125
sbsVrole
p128
(isrc.baseline_system.data.Page
Page
p129
(dp130
g4
I00
sg5
(lp131
Vsocial role
p132
asg6
Nsg7
I170191
sg8
g128
sbsVdetails
p133
(isrc.baseline_system.data.Page
Page
p134
(dp135
g4
I01
sg5
Nsg6
g44
sg7
I1009924
sg8
g133
sbsVprez
p136
(isrc.baseline_system.data.Page
Page
p137
(dp138
g4
I00
sg5
Nsg6
Nsg7
I3124022
sg8
g136
sbsVcnn
p139
(isrc.baseline_system.data.Page
Page
p140
(dp141
g4
I01
sg5
Nsg6
(isrc.baseline_system.data.Page
Page
p142
(dp143
g4
I00
sg5
(lp144
VCable News Network
p145
aVCNN USA
p146
aVCNN/U.S.
p147
asg6
Nsg7
I62028
sg8
VCNN
p148
sbsg7
I1317865
sg8
g139
sbsVpresident graham b. spanier
p149
(isrc.baseline_system.data.Page
Page
p150
(dp151
g4
I00
sg5
Nsg6
Nsg7
I0
sg8
g149
sbsVcriminal
p152
(isrc.baseline_system.data.Page
Page
p153
(dp154
g4
I01
sg5
Nsg6
g50
sg7
I146805
sg8
g152
sbsg86
g79
sVschultz
p155
(isrc.baseline_system.data.Page
Page
p156
(dp157
g4
I00
sg5
Nsg6
Nsg7
I2085540
sg8
g155
sbsVhead
p158
(isrc.baseline_system.data.Page
Page
p159
(dp160
g4
I00
sg5
(lp161
Vkephale
p162
aVheads
p163
aVkephal\u0113
p164
aVnoddles
p165
aVcephalic
p166
aVkephalikos
p167
aVcephalique
p168
asg6
Nsg7
I1209545
sg8
g158
sbsVhis
p169
(isrc.baseline_system.data.Page
Page
p170
(dp171
g4
I00
sg5
Nsg6
Nsg7
I185285
sg8
g169
sbsVOfficial
p172
(isrc.baseline_system.data.Page
Page
p173
(dp174
g4
I00
sg5
(lp175
Vgovernment official
p176
aVadministrator
p177
aVhigher civil servant
p178
asg6
Nsg7
I725182
sg8
g172
sbsVpresident spanier
p179
(isrc.baseline_system.data.Page
Page
p180
(dp181
g4
I00
sg5
Nsg6
Nsg7
I0
sg8
g179
sbsVnew york times
p182
(isrc.baseline_system.data.Page
Page
p183
(dp184
g4
I01
sg5
Nsg6
(isrc.baseline_system.data.Page
Page
p185
(dp186
g4
I00
sg5
(lp187
VNY Times
p188
aVNew York Times
p189
aVThe Gray Lady
p190
aVGray Lady
p191
aVNYT
p192
aVTNYT
p193
aVnytimes.com
p194
aVNew-York Daily Times
p195
aVThe New-York Times
p196
asg6
Nsg7
I30680
sg8
VThe New York Times
p197
sbsg7
I1317871
sg8
g182
sbsVex-pennstate
p198
(isrc.baseline_system.data.Page
Page
p199
(dp200
g4
I00
sg5
Nsg6
Nsg7
I0
sg8
g198
sbsVnew
p201
(isrc.baseline_system.data.Page
Page
p202
(dp203
g4
I00
sg5
Nsg6
Nsg7
I3001336
sg8
g201
sbsVspanier
p204
(isrc.baseline_system.data.Page
Page
p205
(dp206
g4
I00
sg5
Nsg6
Nsg7
I3035615
sg8
g204
sbsVPennsylvania State University
p207
(isrc.baseline_system.data.Page
Page
p208
(dp209
g4
I00
sg5
(lp210
VPenn State
p211
aVPSU
p212
aVPenn State University
p213
asg6
Nsg7
I1209509
sg8
g207
sbsVpenn st
p214
(isrc.baseline_system.data.Page
Page
p215
(dp216
g4
I00
sg5
Nsg6
Nsg7
I0
sg8
g214
sbsVthey
p217
(isrc.baseline_system.data.Page
Page
p218
(dp219
g4
I00
sg5
(lp220
Vthem
p221
aVthemselves
p222
aVtheir
p223
aVtheirs
p224
asg6
Nsg7
I962806
sg8
g217
sbsVwall street journal
p225
(isrc.baseline_system.data.Page
Page
p226
(dp227
g4
I01
sg5
Nsg6
(isrc.baseline_system.data.Page
Page
p228
(dp229
g4
I00
sg5
(lp230
VWall Street Journal
p231
aVWSJ
p232
aVThe Journal
p233
aVThe Wall Street Journal , WSJ
p234
asg6
Nsg7
I173070
sg8
VThe Wall Street Journal
p235
sbsg7
I4077397
sg8
g225
sbsg148
g142
sVpresident
p236
(isrc.baseline_system.data.Page
Page
p237
(dp238
g4
I00
sg5
Nsg6
Nsg7
I24110
sg8
g236
sbsg14
g12
sVnow
p239
(isrc.baseline_system.data.Page
Page
p240
(dp241
g4
I00
sg5
Nsg6
Nsg7
I426118
sg8
g239
sbsVwelfare
p242
(isrc.baseline_system.data.Page
Page
p243
(dp244
g4
I00
sg5
Nsg6
Nsg7
I247817
sg8
g242
sbsV3 officials
p245
(isrc.baseline_system.data.Page
Page
p246
(dp247
g4
I00
sg5
Nsg6
Nsg7
I0
sg8
g245
sbsVchild
p248
(isrc.baseline_system.data.Page
Page
p249
(dp250
g4
I00
sg5
(lp251
Vchildren
p252
asg6
Nsg7
I128987
sg8
g248
sbsVgraham b. spanier
p253
(isrc.baseline_system.data.Page
Page
p254
(dp255
g4
I00
sg5
Nsg6
Nsg7
I0
sg8
g253
sbsVjerry sandusky
p256
(isrc.baseline_system.data.Page
Page
p257
(dp258
g4
I00
sg5
Nsg6
Nsg7
I0
sg8
g256
sbsVchildrn
p259
(isrc.baseline_system.data.Page
Page
p260
(dp261
g4
I00
sg5
Nsg6
Nsg7
I0
sg8
g259
sbsVimmediately
p262
(isrc.baseline_system.data.Page
Page
p263
(dp264
g4
I01
sg5
Nsg6
g47
sg7
I23533210
sg8
g262
sbsg62
g60
sVgraham spanier
p265
(isrc.baseline_system.data.Page
Page
p266
(dp267
g4
I00
sg5
Nsg6
Nsg7
I0
sg8
g265
sbsVuniversity
p268
(isrc.baseline_system.data.Page
Page
p269
(dp270
g4
I00
sg5
(lp271
Vcollege
p272
asg6
Nsg7
I19725260
sg8
g268
sbsVofficial
p273
(isrc.baseline_system.data.Page
Page
p274
(dp275
g4
I00
sg5
(lp276
Vgovernment official
p277
aVadministrator
p278
aVhigher civil servant
p279
asg6
Nsg7
I725182
sg8
g273
sbsg197
g185
sVpresident graham spanier
p280
(isrc.baseline_system.data.Page
Page
p281
(dp282
g4
I00
sg5
Nsg6
Nsg7
I0
sg8
g280
sbsV'conspiracy
p283
(isrc.baseline_system.data.Page
Page
p284
(dp285
g4
I00
sg5
Nsg6
Nsg7
I0
sg8
g283
sbsg100
g96
sVadmins
p286
(isrc.baseline_system.data.Page
Page
p287
(dp288
g4
I01
sg5
Nsg6
g102
sg7
I629733
sg8
g286
sbsVofficials
p289
(isrc.baseline_system.data.Page
Page
p290
(dp291
g4
I01
sg5
Nsg6
g173
sg7
I1256533
sg8
g289
sbsVseveral counts
p292
(isrc.baseline_system.data.Page
Page
p293
(dp294
g4
I00
sg5
Nsg6
Nsg7
I0
sg8
g292
sbsVvice president gary schultz
p295
(isrc.baseline_system.data.Page
Page
p296
(dp297
g4
I00
sg5
Nsg6
Nsg7
I0
sg8
g295
sbsg235
g228
sVex-penn state
p298
(isrc.baseline_system.data.Page
Page
p299
(dp300
g4
I00
sg5
Nsg6
Nsg7
I0
sg8
g298
sbsVpenn state
p301
(isrc.baseline_system.data.Page
Page
p302
(dp303
g4
I01
sg5
Nsg6
g208
sg7
I43530903
sg8
g301
sbsV3 felonies
p304
(isrc.baseline_system.data.Page
Page
p305
(dp306
g4
I00
sg5
Nsg6
Nsg7
I0
sg8
g304
sbsVsilence
p307
(isrc.baseline_system.data.Page
Page
p308
(dp309
g4
I00
sg5
(lp310
Vsource of silence
p311
asg6
Nsg7
I440579
sg8
g307
sbs.