(dp0
Vpurported
p1
(isrc.baseline_system.data.Page
Page
p2
(dp3
S'is_redirect'
p4
I01
sS'aliases'
p5
NsS'redirect_page'
p6
(isrc.baseline_system.data.Page
Page
p7
(dp8
g4
I00
sg5
Nsg6
NsS'pageid'
p9
I44525775
sS'title'
p10
VIntention
p11
sbsg9
I19654630
sg10
g1
sbsVtask force
p12
(isrc.baseline_system.data.Page
Page
p13
(dp14
g4
I00
sg5
(lp15
VTF
p16
asg6
Nsg9
I205394
sg10
g12
sbsVny federal reserve
p17
(isrc.baseline_system.data.Page
Page
p18
(dp19
g4
I00
sg5
Nsg6
Nsg9
I0
sg10
g17
sbsVFederal Reserve Bank
p20
(isrc.baseline_system.data.Page
Page
p21
(dp22
g4
I00
sg5
Nsg6
Nsg9
I178805
sg10
g20
sbsVal-qaeda
p23
(isrc.baseline_system.data.Page
Page
p24
(dp25
g4
I01
sg5
Nsg6
(isrc.baseline_system.data.Page
Page
p26
(dp27
g4
I00
sg5
(lp28
Val-Qa'ida
p29
aVal-Qaida
p30
asg6
Nsg9
I1921
sg10
VAl-Qaeda
p31
sbsg9
I1180627
sg10
g23
sbsVny federal reserve bank
p32
(isrc.baseline_system.data.Page
Page
p33
(dp34
g4
I00
sg5
Nsg6
Nsg9
I0
sg10
g32
sbsValex jones
p35
(isrc.baseline_system.data.Page
Page
p36
(dp37
g4
I01
sg5
Nsg6
(isrc.baseline_system.data.Page
Page
p38
(dp39
g4
I00
sg5
(lp40
VAlexander Emerick Jones
p41
aVAlexander Jones
p42
asg6
Nsg9
I358934
sg10
VAlex Jones
p43
sbsg9
I1537213
sg10
g35
sbsVit
p44
(isrc.baseline_system.data.Page
Page
p45
(dp46
g4
I00
sg5
Nsg6
Nsg9
I74821
sg10
g44
sbsVAJC
p47
(isrc.baseline_system.data.Page
Page
p48
(dp49
g4
I00
sg5
(lp50
VAjc
p51
aVAJC (disambiguation)
p52
asg6
Nsg9
I623702
sg10
g47
sbsVdetonator
p53
(isrc.baseline_system.data.Page
Page
p54
(dp55
g4
I00
sg5
(lp56
VBlasting cap
p57
asg6
Nsg9
I61967
sg10
g53
sbsg11
g7
sVnew york federal reserve
p58
(isrc.baseline_system.data.Page
Page
p59
(dp60
g4
I00
sg5
Nsg6
Nsg9
I0
sg10
g58
sbsVsuspected
p61
(isrc.baseline_system.data.Page
Page
p62
(dp63
g4
I00
sg5
Nsg6
Nsg9
I0
sg10
g61
sbsVwashington post
p64
(isrc.baseline_system.data.Page
Page
p65
(dp66
g4
I01
sg5
Nsg6
(isrc.baseline_system.data.Page
Page
p67
(dp68
g4
I00
sg5
(lp69
VWashington Post
p70
aVWAPO
p71
aVWaPo
p72
aVwashingtonpost.com
p73
asg6
Nsg9
I102226
sg10
VThe Washington Post
p74
sbsg9
I1317866
sg10
g64
sbsVbomb
p75
(isrc.baseline_system.data.Page
Page
p76
(dp77
g4
I00
sg5
Nsg6
Nsg9
I47628
sg10
g75
sbsVfbi
p78
(isrc.baseline_system.data.Page
Page
p79
(dp80
g4
I01
sg5
Nsg6
(isrc.baseline_system.data.Page
Page
p81
(dp82
g4
I00
sg5
(lp83
VFBI
p84
asg6
Nsg9
I11127
sg10
VFederal Bureau of Investigation
p85
sbsg9
I2303935
sg10
g78
sbsVbangladeshi
p86
(isrc.baseline_system.data.Page
Page
p87
(dp88
g4
I01
sg5
Nsg6
(isrc.baseline_system.data.Page
Page
p89
(dp90
g4
I00
sg5
(lp91
VBangladeshi people
p92
asg6
Nsg9
I28958994
sg10
VBangladeshis
p93
sbsg9
I370321
sg10
g86
sbsVcar
p94
(isrc.baseline_system.data.Page
Page
p95
(dp96
g4
I00
sg5
(lp97
Vcar
p98
aVautocar
p99
aVmotor car
p100
aVmotorcar
p101
aVautomobile car
p102
aVauto
p103
aVCar, automobile
p104
asg6
Nsg9
I13673345
sg10
g94
sbsVfederal reserve bank of new york
p105
(isrc.baseline_system.data.Page
Page
p106
(dp107
g4
I01
sg5
Nsg6
(isrc.baseline_system.data.Page
Page
p108
(dp109
g4
I00
sg5
Nsg6
Nsg9
I2194942
sg10
VFederal Reserve Bank of New York
p110
sbsg9
I14384110
sg10
g105
sbsg85
g81
sVCNN
p111
(isrc.baseline_system.data.Page
Page
p112
(dp113
g4
I00
sg5
(lp114
VCable News Network
p115
aVCNN USA
p116
aVCNN/U.S.
p117
asg6
Nsg9
I62028
sg10
g111
sbsV1
p118
(isrc.baseline_system.data.Page
Page
p119
(dp120
g4
I00
sg5
(lp121
Vone
p122
aVI
p123
aV\u2160
p124
aV\u2170
p125
asg6
Nsg9
I22770
sg10
g118
sbsVterrorist
p126
(isrc.baseline_system.data.Page
Page
p127
(dp128
g4
I01
sg5
Nsg6
(isrc.baseline_system.data.Page
Page
p129
(dp130
g4
I00
sg5
Nsg6
Nsg9
I30636
sg10
VTerrorism
p131
sbsg9
I30670
sg10
g126
sbsVfederal reserve
p132
(isrc.baseline_system.data.Page
Page
p133
(dp134
g4
I01
sg5
Nsg6
(isrc.baseline_system.data.Page
Page
p135
(dp136
g4
I00
sg5
(lp137
VFederal Reserve
p138
aVFed
p139
aVFederal Reserve System , FRS
p140
asg6
Nsg9
I10819
sg10
VFederal Reserve System
p141
sbsg9
I1845320
sg10
g132
sbsVperson
p142
(isrc.baseline_system.data.Page
Page
p143
(dp144
g4
I00
sg5
Nsg6
Nsg9
I219599
sg10
g142
sbsVNew York City
p145
(isrc.baseline_system.data.Page
Page
p146
(dp147
g4
I00
sg5
(lp148
VNYC
p149
aVNew York
p150
aVNew York, New York
p151
aVthe five boroughs
p152
aVBig Apple
p153
asg6
Nsg9
I645042
sg10
g145
sbsValleged
p154
(isrc.baseline_system.data.Page
Page
p155
(dp156
g4
I01
sg5
Nsg6
(isrc.baseline_system.data.Page
Page
p157
(dp158
g4
I00
sg5
Nsg6
Nsg9
I2434267
sg10
VAllegation
p159
sbsg9
I2444500
sg10
g154
sbsVpatsy
p160
(isrc.baseline_system.data.Page
Page
p161
(dp162
g4
I00
sg5
(lp163
VPatsy (first name)
p164
aVPatsy (given name)
p165
asg6
Nsg9
I12636891
sg10
g160
sbsg131
g129
sVfbi-nypd
p166
(isrc.baseline_system.data.Page
Page
p167
(dp168
g4
I00
sg5
Nsg6
Nsg9
I0
sg10
g166
sbsVsource
p169
(isrc.baseline_system.data.Page
Page
p170
(dp171
g4
I00
sg5
Nsg6
Nsg9
I242181
sg10
g169
sbsVnew york
p172
(isrc.baseline_system.data.Page
Page
p173
(dp174
g4
I01
sg5
Nsg6
(isrc.baseline_system.data.Page
Page
p175
(dp176
g4
I00
sg5
Nsg6
Nsg9
I673381
sg10
VNew York
p177
sbsg9
I1225170
sg10
g172
sbsVsuspect
p178
(isrc.baseline_system.data.Page
Page
p179
(dp180
g4
I00
sg5
(lp181
Vcrime suspect
p182
aVsuspects
p183
aVcrime suspects
p184
aVSuspect \u6216 crime suspect
p185
asg6
Nsg9
I344966
sg10
g178
sbsg31
g26
sVnew york times
p186
(isrc.baseline_system.data.Page
Page
p187
(dp188
g4
I01
sg5
Nsg6
(isrc.baseline_system.data.Page
Page
p189
(dp190
g4
I00
sg5
(lp191
VNY Times
p192
aVNew York Times
p193
aVThe Gray Lady
p194
aVGray Lady
p195
aVNYT
p196
aVTNYT
p197
aVnytimes.com
p198
aVNew-York Daily Times
p199
aVThe New-York Times
p200
asg6
Nsg9
I30680
sg10
VThe New York Times
p201
sbsg9
I1317871
sg10
g186
sbsVterror
p202
(isrc.baseline_system.data.Page
Page
p203
(dp204
g4
I01
sg5
Nsg6
(isrc.baseline_system.data.Page
Page
p205
(dp206
g4
I00
sg5
Nsg6
Nsg9
I10828
sg10
VFear
p207
sbsg9
I45515259
sg10
g202
sbsVnyc
p208
(isrc.baseline_system.data.Page
Page
p209
(dp210
g4
I01
sg5
Nsg6
(isrc.baseline_system.data.Page
Page
p211
(dp212
g4
I00
sg5
(lp213
VNYC
p214
aVNew York
p215
aVNew York, New York
p216
aVthe five boroughs
p217
aVBig Apple
p218
asg6
Nsg9
I645042
sg10
VNew York City
p219
sbsg9
I5550869
sg10
g208
sbsVajc
p220
(isrc.baseline_system.data.Page
Page
p221
(dp222
g4
I01
sg5
Nsg6
g48
sg9
I8765220
sg10
g220
sbsVsky news
p223
(isrc.baseline_system.data.Page
Page
p224
(dp225
g4
I01
sg5
Nsg6
(isrc.baseline_system.data.Page
Page
p226
(dp227
g4
I00
sg5
Nsg6
Nsg9
I216355
sg10
VSky News
p228
sbsg9
I2671540
sg10
g223
sbsg74
g67
sg93
g89
sVallegedly
p229
(isrc.baseline_system.data.Page
Page
p230
(dp231
g4
I01
sg5
Nsg6
(isrc.baseline_system.data.Page
Page
p232
(dp233
g4
I00
sg5
Nsg6
Nsg9
I2434267
sg10
VAllegation
p234
sbsg9
I2811773
sg10
g229
sbsVnew york city
p235
(isrc.baseline_system.data.Page
Page
p236
(dp237
g4
I01
sg5
Nsg6
g146
sg9
I1704284
sg10
g235
sbsV21 years old
p238
(isrc.baseline_system.data.Page
Page
p239
(dp240
g4
I00
sg5
Nsg6
Nsg9
I0
sg10
g238
sbsVmuslim
p241
(isrc.baseline_system.data.Page
Page
p242
(dp243
g4
I00
sg5
(lp244
VMoslem
p245
asg6
Nsg9
I19541
sg10
g241
sbsVfed reserve bank
p246
(isrc.baseline_system.data.Page
Page
p247
(dp248
g4
I00
sg5
Nsg6
Nsg9
I0
sg10
g246
sbsVthe lookout
p249
(isrc.baseline_system.data.Page
Page
p250
(dp251
g4
I00
sg5
Nsg6
Nsg9
I0
sg10
g249
sbsVwitless
p252
(isrc.baseline_system.data.Page
Page
p253
(dp254
g4
I00
sg5
Nsg6
Nsg9
I25309045
sg10
g252
sbsg159
g157
sg141
g135
sVcbsnews
p255
(isrc.baseline_system.data.Page
Page
p256
(dp257
g4
I00
sg5
Nsg6
Nsg9
I0
sg10
g255
sbsVnypd
p258
(isrc.baseline_system.data.Page
Page
p259
(dp260
g4
I01
sg5
Nsg6
(isrc.baseline_system.data.Page
Page
p261
(dp262
g4
I00
sg5
(lp263
VNYPD
p264
aVCity of New York Police Department
p265
asg6
Nsg9
I255413
sg10
VNew York City Police Department
p266
sbsg9
I6909988
sg10
g258
sbsVbank
p267
(isrc.baseline_system.data.Page
Page
p268
(dp269
g4
I00
sg5
Nsg6
Nsg9
I19360669
sg10
g267
sbsVman
p270
(isrc.baseline_system.data.Page
Page
p271
(dp272
g4
I00
sg5
(lp273
Vmen
p274
asg6
Nsg9
I15822899
sg10
g270
sbsVquazi nafis
p275
(isrc.baseline_system.data.Page
Page
p276
(dp277
g4
I00
sg5
Nsg6
Nsg9
I0
sg10
g275
sbsVyahoo ! news
p278
(isrc.baseline_system.data.Page
Page
p279
(dp280
g4
I00
sg5
Nsg6
Nsg9
I0
sg10
g278
sbsVnew york federal reserve bank
p281
(isrc.baseline_system.data.Page
Page
p282
(dp283
g4
I00
sg5
Nsg6
Nsg9
I0
sg10
g281
sbsVlos angeles times
p284
(isrc.baseline_system.data.Page
Page
p285
(dp286
g4
I00
sg5
Nsg6
Nsg9
I0
sg10
g284
sbsVnew york fed
p287
(isrc.baseline_system.data.Page
Page
p288
(dp289
g4
I00
sg5
Nsg6
Nsg9
I0
sg10
g287
sbsVfederal reserve bank
p290
(isrc.baseline_system.data.Page
Page
p291
(dp292
g4
I01
sg5
Nsg6
g21
sg9
I1845319
sg10
g290
sbsg228
g226
sVnbc new york
p293
(isrc.baseline_system.data.Page
Page
p294
(dp295
g4
I00
sg5
Nsg6
Nsg9
I0
sg10
g293
sbsg201
g189
sg266
g261
sVcnn
p296
(isrc.baseline_system.data.Page
Page
p297
(dp298
g4
I01
sg5
Nsg6
g112
sg9
I1317865
sg10
g296
sbsg177
g175
sVmassive
p299
(isrc.baseline_system.data.Page
Page
p300
(dp301
g4
I00
sg5
Nsg6
Nsg9
I2416566
sg10
g299
sbsVsusan candiotti
p302
(isrc.baseline_system.data.Page
Page
p303
(dp304
g4
I00
sg5
Nsg6
Nsg9
I0
sg10
g302
sbsV'bomber
p305
(isrc.baseline_system.data.Page
Page
p306
(dp307
g4
I00
sg5
Nsg6
Nsg9
I0
sg10
g305
sbsV21-year-old
p308
(isrc.baseline_system.data.Page
Page
p309
(dp310
g4
I00
sg5
Nsg6
Nsg9
I0
sg10
g308
sbsVsituation
p311
(isrc.baseline_system.data.Page
Page
p312
(dp313
g4
I00
sg5
Nsg6
Nsg9
I19039812
sg10
g311
sbsg207
g205
sV000 pound
p314
(isrc.baseline_system.data.Page
Page
p315
(dp316
g4
I00
sg5
Nsg6
Nsg9
I0
sg10
g314
sbsg110
g108
sg43
g38
s.