(dp0
Vtuesday morn.tipline
p1
(isrc.baseline_system.data.Page
Page
p2
(dp3
S'is_redirect'
p4
I00
sS'aliases'
p5
NsS'redirect_page'
p6
NsS'pageid'
p7
I0
sS'title'
p8
g1
sbsVapartment
p9
(isrc.baseline_system.data.Page
Page
p10
(dp11
g4
I00
sg5
(lp12
Vflat
p13
asg6
Nsg7
I265567
sg8
g9
sbsVpolice
p14
(isrc.baseline_system.data.Page
Page
p15
(dp16
g4
I00
sg5
(lp17
Vpolice force
p18
aVnational police
p19
aVpolice service
p20
asg6
Nsg7
I23627
sg8
g14
sbsV21
p21
(isrc.baseline_system.data.Page
Page
p22
(dp23
g4
I00
sg5
Nsg6
Nsg7
I16924384
sg8
g21
sbsVoregon trail starbucks
p24
(isrc.baseline_system.data.Page
Page
p25
(dp26
g4
I00
sg5
Nsg6
Nsg7
I0
sg8
g24
sbsVSearcher
p27
(isrc.baseline_system.data.Page
Page
p28
(dp29
g4
I00
sg5
Nsg6
Nsg7
I18003100
sg8
g27
sbsVwoman
p30
(isrc.baseline_system.data.Page
Page
p31
(dp32
g4
I00
sg5
(lp33
Vfemale human
p34
asg6
Nsg7
I33183
sg8
g30
sbsVbig
p35
(isrc.baseline_system.data.Page
Page
p36
(dp37
g4
I00
sg5
(lp38
VBIG
p39
asg6
Nsg7
I4844989
sg8
g35
sbsVjonathan holt
p40
(isrc.baseline_system.data.Page
Page
p41
(dp42
g4
I00
sg5
Nsg6
Nsg7
I0
sg8
g40
sbsVstarbucks
p43
(isrc.baseline_system.data.Page
Page
p44
(dp45
g4
I00
sg5
(lp46
VStarbucks Corporation
p47
aVStarbucks Coffee
p48
aVStarbucks Coffee Company
p49
asg6
Nsg7
I178771
sg8
g43
sbsVthey
p50
(isrc.baseline_system.data.Page
Page
p51
(dp52
g4
I00
sg5
(lp53
Vthem
p54
aVthemselves
p55
aVtheir
p56
aVtheirs
p57
asg6
Nsg7
I962806
sg8
g50
sbsV10/16/2012
p58
(isrc.baseline_system.data.Page
Page
p59
(dp60
g4
I00
sg5
Nsg6
Nsg7
I0
sg8
g58
sbsVwhitney heichel.watch
p61
(isrc.baseline_system.data.Page
Page
p62
(dp63
g4
I00
sg5
Nsg6
Nsg7
I0
sg8
g61
sbsVnow
p64
(isrc.baseline_system.data.Page
Page
p65
(dp66
g4
I00
sg5
Nsg6
Nsg7
I426118
sg8
g64
sbsV6:30 pm
p67
(isrc.baseline_system.data.Page
Page
p68
(dp69
g4
I00
sg5
Nsg6
Nsg7
I0
sg8
g67
sbsVfive minute
p70
(isrc.baseline_system.data.Page
Page
p71
(dp72
g4
I00
sg5
Nsg6
Nsg7
I0
sg8
g70
sbsVSearching
p73
(isrc.baseline_system.data.Page
Page
p74
(dp75
g4
I00
sg5
(lp76
VSearch
p77
asg6
Nsg7
I19386149
sg8
g73
sbsVgresham pd
p78
(isrc.baseline_system.data.Page
Page
p79
(dp80
g4
I00
sg5
Nsg6
Nsg7
I0
sg8
g78
sbsVshe
p81
(isrc.baseline_system.data.Page
Page
p82
(dp83
g4
I00
sg5
(lp84
Vher
p85
aVhers
p86
aVherself
p87
asg6
Nsg7
I7785570
sg8
g81
sbsVMobile phone
p88
(isrc.baseline_system.data.Page
Page
p89
(dp90
g4
I00
sg5
(lp91
Vcellular phone
p92
aVcell phone
p93
aVhand phone
p94
aVmobile
p95
aVcellphone
p96
asg6
Nsg7
I19644137
sg8
g88
sbsVinvestigators
p97
(isrc.baseline_system.data.Page
Page
p98
(dp99
g4
I01
sg5
Nsg6
(isrc.baseline_system.data.Page
Page
p100
(dp101
g4
I00
sg5
Nsg6
Nsg7
I378377
sg8
VInvestigator
p102
sbsg7
I22602526
sg8
g97
sbsVapartments
p103
(isrc.baseline_system.data.Page
Page
p104
(dp105
g4
I01
sg5
Nsg6
(isrc.baseline_system.data.Page
Page
p106
(dp107
g4
I00
sg5
(lp108
Vflat
p109
asg6
Nsg7
I265567
sg8
VApartment
p110
sbsg7
I1218526
sg8
g103
sbsVSadness
p111
(isrc.baseline_system.data.Page
Page
p112
(dp113
g4
I00
sg5
Nsg6
Nsg7
I234796
sg8
g111
sbsVCrew
p114
(isrc.baseline_system.data.Page
Page
p115
(dp116
g4
I00
sg5
Nsg6
Nsg7
I6801
sg8
g114
sbsVclackamas county
p117
(isrc.baseline_system.data.Page
Page
p118
(dp119
g4
I00
sg5
Nsg6
Nsg7
I0
sg8
g117
sbsVu.s news
p120
(isrc.baseline_system.data.Page
Page
p121
(dp122
g4
I00
sg5
Nsg6
Nsg7
I0
sg8
g120
sbsVour
p123
(isrc.baseline_system.data.Page
Page
p124
(dp125
g4
I00
sg5
Nsg6
Nsg7
I839712
sg8
g123
sbsVtroutdale
p126
(isrc.baseline_system.data.Page
Page
p127
(dp128
g4
I00
sg5
Nsg6
Nsg7
I40076491
sg8
g126
sbsV4pm
p129
(isrc.baseline_system.data.Page
Page
p130
(dp131
g4
I00
sg5
Nsg6
Nsg7
I0
sg8
g129
sbsVsuspect
p132
(isrc.baseline_system.data.Page
Page
p133
(dp134
g4
I00
sg5
(lp135
Vcrime suspect
p136
aVsuspects
p137
aVcrime suspects
p138
aVSuspect \u6216 crime suspect
p139
asg6
Nsg7
I344966
sg8
g132
sbsVbody
p140
(isrc.baseline_system.data.Page
Page
p141
(dp142
g4
I00
sg5
Nsg6
Nsg7
I3788
sg8
g140
sbsVnews conference
p143
(isrc.baseline_system.data.Page
Page
p144
(dp145
g4
I00
sg5
(lp146
Vpress conference
p147
asg6
Nsg7
I28730792
sg8
g143
sbsVclues
p148
(isrc.baseline_system.data.Page
Page
p149
(dp150
g4
I01
sg5
Nsg6
(isrc.baseline_system.data.Page
Page
p151
(dp152
g4
I00
sg5
Nsg6
Nsg7
I44156
sg8
VClue
p153
sbsg7
I28061999
sg8
g148
sbsVso sad
p154
(isrc.baseline_system.data.Page
Page
p155
(dp156
g4
I00
sg5
Nsg6
Nsg7
I0
sg8
g154
sbsVHorror and terror
p157
(isrc.baseline_system.data.Page
Page
p158
(dp159
g4
I00
sg5
Nsg6
Nsg7
I432622
sg8
g157
sbsVbushes
p160
(isrc.baseline_system.data.Page
Page
p161
(dp162
g4
I01
sg5
Nsg6
(isrc.baseline_system.data.Page
Page
p163
(dp164
g4
I00
sg5
(lp165
Vbush
p166
asg6
Nsg7
I61708
sg8
VShrub
p167
sbsg7
I1302922
sg8
g160
sbsVsearch
p168
(isrc.baseline_system.data.Page
Page
p169
(dp170
g4
I01
sg5
Nsg6
g74
sg7
I19389629
sg8
g168
sbsVkids
p171
(isrc.baseline_system.data.Page
Page
p172
(dp173
g4
I01
sg5
Nsg6
(isrc.baseline_system.data.Page
Page
p174
(dp175
g4
I00
sg5
Nsg6
Nsg7
I33719637
sg8
VKid
p176
sbsg7
I37476245
sg8
g171
sbsVjonathon holt
p177
(isrc.baseline_system.data.Page
Page
p178
(dp179
g4
I00
sg5
Nsg6
Nsg7
I0
sg8
g177
sbsVmiz.chellielas vegas world news
p180
(isrc.baseline_system.data.Page
Page
p181
(dp182
g4
I00
sg5
Nsg6
Nsg7
I0
sg8
g180
sbsVneighbor
p183
(isrc.baseline_system.data.Page
Page
p184
(dp185
g4
I00
sg5
(lp186
VNeighbours
p187
aVNeighbors
p188
aVNeighbour
p189
aVthe Neighbor
p190
aVthe Neighbors
p191
aVthe Neighbour
p192
aVthe Neighbours
p193
asg6
Nsg7
I6278116
sg8
g183
sbsVPrayer
p194
(isrc.baseline_system.data.Page
Page
p195
(dp196
g4
I00
sg5
Nsg6
Nsg7
I25042
sg8
g194
sbsVresidents
p197
(isrc.baseline_system.data.Page
Page
p198
(dp199
g4
I01
sg5
Nsg6
(isrc.baseline_system.data.Page
Page
p200
(dp201
g4
I00
sg5
(lp202
VRezident
p203
asg6
Nsg7
I221355
sg8
VResident
p204
sbsg7
I9649588
sg8
g197
sbsg110
g106
sVfamily
p205
(isrc.baseline_system.data.Page
Page
p206
(dp207
g4
I00
sg5
Nsg6
Nsg7
I10401954
sg8
g205
sbsVgresham
p208
(isrc.baseline_system.data.Page
Page
p209
(dp210
g4
I00
sg5
Nsg6
Nsg7
I25698356
sg8
g208
sbsVwhitney heichel
p211
(isrc.baseline_system.data.Page
Page
p212
(dp213
g4
I00
sg5
Nsg6
Nsg7
I0
sg8
g211
sbsV25 tips
p214
(isrc.baseline_system.data.Page
Page
p215
(dp216
g4
I00
sg5
Nsg6
Nsg7
I0
sg8
g214
sbsVcity
p217
(isrc.baseline_system.data.Page
Page
p218
(dp219
g4
I00
sg5
Nsg6
Nsg7
I5391
sg8
g217
sbsVher
p220
(isrc.baseline_system.data.Page
Page
p221
(dp222
g4
I00
sg5
(lp223
VHER
p224
asg6
Nsg7
I839716
sg8
g220
sbsVremains
p225
(isrc.baseline_system.data.Page
Page
p226
(dp227
g4
I00
sg5
Nsg6
Nsg7
I1789877
sg8
g225
sbsVonly 21
p228
(isrc.baseline_system.data.Page
Page
p229
(dp230
g4
I00
sg5
Nsg6
Nsg7
I0
sg8
g228
sbsVprayers
p231
(isrc.baseline_system.data.Page
Page
p232
(dp233
g4
I01
sg5
Nsg6
g195
sg7
I47023620
sg8
g231
sbsVcrews
p234
(isrc.baseline_system.data.Page
Page
p235
(dp236
g4
I01
sg5
Nsg6
g115
sg7
I44379595
sg8
g234
sbsVmore
p237
(isrc.baseline_system.data.Page
Page
p238
(dp239
g4
I00
sg5
Nsg6
Nsg7
I43850
sg8
g237
sbsVcandlelight vigil
p240
(isrc.baseline_system.data.Page
Page
p241
(dp242
g4
I00
sg5
Nsg6
Nsg7
I10957051
sg8
g240
sbsVpark
p243
(isrc.baseline_system.data.Page
Page
p244
(dp245
g4
I00
sg5
Nsg6
Nsg7
I166459
sg8
g243
sbsVoregon
p246
(isrc.baseline_system.data.Page
Page
p247
(dp248
g4
I00
sg5
(lp249
VOR
p250
aVOregon, United States
p251
aVState of Oregon
p252
aVOre.
p253
asg6
Nsg7
I26811621
sg8
g246
sbsVoffice depot
p254
(isrc.baseline_system.data.Page
Page
p255
(dp256
g4
I01
sg5
Nsg6
(isrc.baseline_system.data.Page
Page
p257
(dp258
g4
I00
sg5
Nsg6
Nsg7
I572963
sg8
VOffice Depot
p259
sbsg7
I1318100
sg8
g254
sbsVwhitney
p260
(isrc.baseline_system.data.Page
Page
p261
(dp262
g4
I00
sg5
Nsg6
Nsg7
I329171
sg8
g260
sbsVtomorrow night
p263
(isrc.baseline_system.data.Page
Page
p264
(dp265
g4
I00
sg5
Nsg6
Nsg7
I0
sg8
g263
sbsVcase
p266
(isrc.baseline_system.data.Page
Page
p267
(dp268
g4
I00
sg5
Nsg6
Nsg7
I6603
sg8
g266
sbsVwork
p269
(isrc.baseline_system.data.Page
Page
p270
(dp271
g4
I00
sg5
Nsg6
Nsg7
I33663
sg8
g269
sbsVhorrifying
p272
(isrc.baseline_system.data.Page
Page
p273
(dp274
g4
I01
sg5
Nsg6
g158
sg7
I52502291
sg8
g272
sbsVsearchers
p275
(isrc.baseline_system.data.Page
Page
p276
(dp277
g4
I01
sg5
Nsg6
g28
sg7
I26500607
sg8
g275
sbsg167
g163
sVlaw wire news
p278
(isrc.baseline_system.data.Page
Page
p279
(dp280
g4
I00
sg5
Nsg6
Nsg7
I0
sg8
g278
sbsVcold world
p281
(isrc.baseline_system.data.Page
Page
p282
(dp283
g4
I00
sg5
Nsg6
Nsg7
I0
sg8
g281
sbsVit
p284
(isrc.baseline_system.data.Page
Page
p285
(dp286
g4
I00
sg5
Nsg6
Nsg7
I74821
sg8
g284
sbsVsad
p287
(isrc.baseline_system.data.Page
Page
p288
(dp289
g4
I01
sg5
Nsg6
g112
sg7
I234797
sg8
g287
sbsVtonight
p290
(isrc.baseline_system.data.Page
Page
p291
(dp292
g4
I00
sg5
Nsg6
Nsg7
I2932073
sg8
g290
sbsg259
g257
sVWorkforce
p293
(isrc.baseline_system.data.Page
Page
p294
(dp295
g4
I00
sg5
(lp296
Vlabour force
p297
aVlabor force
p298
asg6
Nsg7
I857255
sg8
g293
sbsg153
g151
sVfield
p299
(isrc.baseline_system.data.Page
Page
p300
(dp301
g4
I00
sg5
(lp302
VFeldo
p303
asg6
Nsg7
I296062
sg8
g299
sbsVcomplex
p304
(isrc.baseline_system.data.Page
Page
p305
(dp306
g4
I00
sg5
Nsg6
Nsg7
I872470
sg8
g304
sbsVmissingperson
p307
(isrc.baseline_system.data.Page
Page
p308
(dp309
g4
I00
sg5
Nsg6
Nsg7
I0
sg8
g307
sbsVso incredibly
p310
(isrc.baseline_system.data.Page
Page
p311
(dp312
g4
I00
sg5
Nsg6
Nsg7
I0
sg8
g310
sbsg176
g174
sg102
g100
sVworker
p313
(isrc.baseline_system.data.Page
Page
p314
(dp315
g4
I01
sg5
Nsg6
g294
sg7
I277704
sg8
g313
sbsVlarch mountain
p316
(isrc.baseline_system.data.Page
Page
p317
(dp318
g4
I00
sg5
Nsg6
Nsg7
I0
sg8
g316
sbsVyesterday
p319
(isrc.baseline_system.data.Page
Page
p320
(dp321
g4
I00
sg5
Nsg6
Nsg7
I853973
sg8
g319
sbsVThought
p322
(isrc.baseline_system.data.Page
Page
p323
(dp324
g4
I00
sg5
(lp325
Vthinking
p326
asg6
Nsg7
I37080
sg8
g322
sbsVcell phone
p327
(isrc.baseline_system.data.Page
Page
p328
(dp329
g4
I01
sg5
Nsg6
g89
sg7
I6464
sg8
g327
sbsVthoughts
p330
(isrc.baseline_system.data.Page
Page
p331
(dp332
g4
I01
sg5
Nsg6
g323
sg7
I1288422
sg8
g330
sbsVman
p333
(isrc.baseline_system.data.Page
Page
p334
(dp335
g4
I00
sg5
(lp336
Vmen
p337
asg6
Nsg7
I15822899
sg8
g333
sbsVthe oregonian
p338
(isrc.baseline_system.data.Page
Page
p339
(dp340
g4
I00
sg5
Nsg6
Nsg7
I0
sg8
g338
sbsVcellphone
p341
(isrc.baseline_system.data.Page
Page
p342
(dp343
g4
I01
sg5
Nsg6
(isrc.baseline_system.data.Page
Page
p344
(dp345
g4
I00
sg5
(lp346
Vcellular phone
p347
aVcell phone
p348
aVhand phone
p349
aVmobile
p350
aVcellphone
p351
asg6
Nsg7
I19644137
sg8
VMobile phone
p352
sbsg7
I12270469
sg8
g341
sbsVbarista
p353
(isrc.baseline_system.data.Page
Page
p354
(dp355
g4
I00
sg5
Nsg6
Nsg7
I211895
sg8
g353
sbsg204
g200
sVportland local news
p356
(isrc.baseline_system.data.Page
Page
p357
(dp358
g4
I00
sg5
Nsg6
Nsg7
I0
sg8
g356
sbsVovernight
p359
(isrc.baseline_system.data.Page
Page
p360
(dp361
g4
I00
sg5
Nsg6
Nsg7
I4179195
sg8
g359
sbsVlarch mt
p362
(isrc.baseline_system.data.Page
Page
p363
(dp364
g4
I00
sg5
Nsg6
Nsg7
I0
sg8
g362
sbsV21-year-old
p365
(isrc.baseline_system.data.Page
Page
p366
(dp367
g4
I00
sg5
Nsg6
Nsg7
I0
sg8
g365
sbs.